L251 LINKER/LOCATER V4.66.93.0                                                          02/28/2025  09:05:19  PAGE 1


L251 LINKER/LOCATER V4.66.93.0, INVOKED BY:
D:\KEILMDK\C251\BIN\L251.EXE .\obj\ISR.obj, .\obj\main.obj, .\obj\uart.obj, .\obj\ads1110.obj, .\obj\EepRom.obj, .\obj\i
>> 2c.obj, .\obj\Lcd.obj, .\obj\LcdApp.obj, .\obj\mcp4725.obj, .\obj\ModBus.obj, .\obj\ModBusDev.obj, .\obj\ModBusHost.o
>> bj, .\obj\system.obj, .\obj\PD_Probe.obj, .\obj\CalcDoseRate.obj, .\obj\Sensor.obj, .\obj\cmd.obj TO .\obj\PileCore P
>> RINT (.\obj\PileCore.map) CASE REMOVEUNUSED CLASSES (EDATA (0X0-0XFFF), HDATA (0X0-0XFFF))


CPU MODE:     251 SOURCE MODE
INTR FRAME:   4 BYTES SAVED ON INTERRUPT
MEMORY MODEL: XSMALL WITH FLOATING POINT ARITHMETIC


INPUT MODULES INCLUDED:
  .\obj\ISR.obj (ISR)
         COMMENT TYPE 0: A251 V4.69.13.0
  .\obj\main.obj (main)
         COMMENT TYPE 0: C251 V5.60.0
  .\obj\uart.obj (uart)
         COMMENT TYPE 0: C251 V5.60.0
  .\obj\ads1110.obj (ads1110)
         COMMENT TYPE 0: C251 V5.60.0
  .\obj\EepRom.obj (EepRom)
         COMMENT TYPE 0: C251 V5.60.0
  .\obj\i2c.obj (i2c)
         COMMENT TYPE 0: C251 V5.60.0
  .\obj\Lcd.obj (Lcd)
         COMMENT TYPE 0: C251 V5.60.0
  .\obj\LcdApp.obj (LcdApp)
         COMMENT TYPE 0: C251 V5.60.0
  .\obj\mcp4725.obj (mcp4725)
         COMMENT TYPE 0: C251 V5.60.0
  .\obj\ModBus.obj (ModBus)
         COMMENT TYPE 0: C251 V5.60.0
  .\obj\ModBusDev.obj (ModBusDev)
         COMMENT TYPE 0: C251 V5.60.0
  .\obj\ModBusHost.obj (ModBusHost)
         COMMENT TYPE 0: C251 V5.60.0
  .\obj\system.obj (system)
         COMMENT TYPE 0: C251 V5.60.0
  .\obj\PD_Probe.obj (PD_Probe)
         COMMENT TYPE 0: C251 V5.60.0
  .\obj\CalcDoseRate.obj (CalcDoseRate)
         COMMENT TYPE 0: C251 V5.60.0
  .\obj\Sensor.obj (Sensor)
         COMMENT TYPE 0: C251 V5.60.0
  .\obj\cmd.obj (cmd)
         COMMENT TYPE 0: C251 V5.60.0
  D:\KEILMDK\C251\LIB\C2SFPXS.LIB (?C?FPADD)
         COMMENT TYPE 0: A251 V4.69.6.0
  D:\KEILMDK\C251\LIB\C2SFPXS.LIB (?C?FPMUL)
         COMMENT TYPE 0: A251 V4.69.6.0
  D:\KEILMDK\C251\LIB\C2SFPXS.LIB (?C?FPDIV)
         COMMENT TYPE 0: A251 V4.69.6.0
  D:\KEILMDK\C251\LIB\C2SFPXS.LIB (?C?FPCMP)
         COMMENT TYPE 0: A251 V4.69.6.0
  D:\KEILMDK\C251\LIB\C2SFPXS.LIB (?C?FCAST)
         COMMENT TYPE 0: A251 V4.69.6.0
  D:\KEILMDK\C251\LIB\C2SFPXS.LIB (?C?CASTF)
         COMMENT TYPE 0: A251 V4.69.6.0
  D:\KEILMDK\C251\LIB\C2SFPXS.LIB (SPRINTF)
         COMMENT TYPE 0: A251 V4.69.6.0
  D:\KEILMDK\C251\LIB\C2SFPXS.LIB (EXP?_)
         COMMENT TYPE 0: A251 V4.69.6.0
  D:\KEILMDK\C251\LIB\C2SFPXS.LIB (SQRT?_)
         COMMENT TYPE 0: A251 V4.69.6.0
  D:\KEILMDK\C251\LIB\C2SFPXS.LIB (?C?FPGETOPN)
L251 LINKER/LOCATER V4.66.93.0                                                        02/28/2025  09:05:19  PAGE 2


         COMMENT TYPE 0: A251 V4.69.6.0
  D:\KEILMDK\C251\LIB\C2SFPXS.LIB (?C?PRNFMT)
         COMMENT TYPE 0: A251 V4.69.6.0
  D:\KEILMDK\C251\LIB\C2SFPXS.LIB (?C?FPSERIES)
         COMMENT TYPE 0: A251 V4.69.6.0
  D:\KEILMDK\C251\LIB\C2SFPXS.LIB (?C?FPCONVERT)
         COMMENT TYPE 0: A251 V4.69.6.0
  D:\KEILMDK\C251\LIB\C2SFPXS.LIB (?C?FTNPWR)
         COMMENT TYPE 0: A251 V4.69.6.0
  D:\KEILMDK\C251\LIB\C2SXS.LIB (?C_START)
         COMMENT TYPE 0: A251 V4.69.6.0
  D:\KEILMDK\C251\LIB\C2SXS.LIB (?C?INITEDATA)
         COMMENT TYPE 0: A251 V4.69.6.0
  D:\KEILMDK\C251\LIB\C2SXS.LIB (?C?INITHDATA)
         COMMENT TYPE 0: A251 V4.69.6.0
  D:\KEILMDK\C251\LIB\C2SXS.LIB (?C?ULDIV)
         COMMENT TYPE 0: A251 V4.69.6.0
  D:\KEILMDK\C251\LIB\C2SXS.LIB (?C?BMOVENP)
         COMMENT TYPE 0: A251 V4.69.6.0
  D:\KEILMDK\C251\LIB\C2SXS.LIB (ATOI)
         COMMENT TYPE 0: C251 V5.58.7
  D:\KEILMDK\C251\LIB\C2SXS.LIB (STRLEN)
         COMMENT TYPE 0: C251 V5.58.7
  D:\KEILMDK\C251\LIB\C2SXS.LIB (memcmp)
         COMMENT TYPE 0: C251 V5.58.7
  D:\KEILMDK\C251\LIB\C2SXS.LIB (memcpy)
         COMMENT TYPE 0: C251 V5.58.7
  D:\KEILMDK\C251\LIB\C2SXS.LIB (memset)
         COMMENT TYPE 0: C251 V5.58.7
  D:\KEILMDK\C251\LIB\C2SXS.LIB (?C?INITEDATA_END)
         COMMENT TYPE 0: A251 V4.69.6.0
  D:\KEILMDK\C251\LIB\C2SXS.LIB (?C?INITHDATA_END)
         COMMENT TYPE 0: A251 V4.69.6.0
  D:\KEILMDK\C251\LIB\C2SXS.LIB (ISDIGIT)
         COMMENT TYPE 0: C251 V5.58.7
  D:\KEILMDK\C251\LIB\C2SXS.LIB (ISSPACE)
         COMMENT TYPE 0: C251 V5.58.7


ACTIVE MEMORY CLASSES OF MODULE:  .\obj\PileCore (ISR)

BASE        START       END         USED      MEMORY CLASS
==========================================================
000000H     000000H     000FFFH     000D2FH   EDATA
000000H     000000H     000FFFH               HDATA
FF0000H     FF0000H     FFFFFFH     00616BH   CODE
000000H     FF0000H     FFFFFFH     0007BEH   HCONST
010000H     010000H     01FFFFH     0009ECH   XDATA
000020H.0   000020H.0   00002FH.7   000000H.4 BIT
FF0000H     FF0000H     FFFFFFH     000004H   CONST
000000H     000000H     00007FH     000008H   DATA


MEMORY MAP OF MODULE:  .\obj\PileCore (ISR)


START     STOP      LENGTH    ALIGN  RELOC    MEMORY CLASS   SEGMENT NAME
=========================================================================
000000H   000007H   000008H   ---    AT..     DATA           "REG BANK 0"
000008H   00001CH   000015H   BYTE   UNIT     EDATA          ?ED?CPSTOUSV_H?CALCDOSERATE
00001DH   00001FH   000003H   BYTE   UNIT     EDATA          ?ED?LCD
000020H.0 000020H.3 000000H.4 BIT    UNIT     BIT            ?BI?UART
000020H.4 000020H   000000H.4 ---    ---      **GAP**
000021H   000350H   000330H   BYTE   UNIT     EDATA          ?ED?UART
000351H   00049AH   00014AH   BYTE   UNIT     EDATA          ?ED?CALCDOSERATE
L251 LINKER/LOCATER V4.66.93.0                                                        02/28/2025  09:05:19  PAGE 3


00049BH   000599H   0000FFH   BYTE   UNIT     EDATA          ?ED?MAIN
00059AH   00066BH   0000D2H   BYTE   UNIT     EDATA          ?ED?CMD
00066CH   0006D0H   000065H   BYTE   UNIT     EDATA          ?ED?ACK_CMD_WINFO?CMD
0006D1H   000731H   000061H   BYTE   UNIT     EDATA          ?ED?ACK_CMD_RINFO?CMD
000732H   00076AH   000039H   BYTE   UNIT     EDATA          ?ED?ACK_CMD_W?CMD
00076BH   0007A3H   000039H   BYTE   UNIT     EDATA          ?ED?ACK_CMD_P?CMD
0007A4H   0007D8H   000035H   BYTE   UNIT     EDATA          ?ED?ACK_CMD_R?CMD
0007D9H   00080CH   000034H   BYTE   UNIT     EDATA          ?ED?ACK_CMD_N?CMD
00080DH   00083EH   000032H   BYTE   UNIT     EDATA          ?ED?ACK_CMD_V?CMD
00083FH   00086FH   000031H   BYTE   UNIT     EDATA          ?ED?SENSOR
000870H   00089FH   000030H   BYTE   UNIT     EDATA          ?ED?ACK_CMD_J?CMD
0008A0H   0008C7H   000028H   BYTE   UNIT     EDATA          _EDATA_GROUP_
0008C8H   0008EBH   000024H   BYTE   UNIT     EDATA          ?ED?ACK_CMD_B?CMD
0008ECH   00090BH   000020H   BYTE   UNIT     EDATA          ?ED?ACK_CMD_F?CMD
00090CH   000926H   00001BH   BYTE   UNIT     EDATA          ?ED?SHOWVAL?LCD
000927H   000940H   00001AH   BYTE   UNIT     EDATA          ?ED?CHECKDOSERATE?MAIN
000941H   000954H   000014H   BYTE   UNIT     EDATA          ?ED?MCP4725_OUTVOL?MCP4725
000955H   000968H   000014H   BYTE   UNIT     EDATA          ?ED?CRC16CALC?MODBUS
000969H   00097BH   000013H   BYTE   UNIT     EDATA          ?ED?SYSTEM
00097CH   00098DH   000012H   BYTE   UNIT     EDATA          ?ED?EEPROM_WRITE?EEPROM
00098EH   00099FH   000012H   BYTE   UNIT     EDATA          ?ED?SETLCDTIME?LCD
0009A0H   0009B1H   000012H   BYTE   UNIT     EDATA          ?ED?SETCURTIME?LCDAPP
0009B2H   0009C2H   000011H   BYTE   UNIT     EDATA          ?ED?HOSTSENDCMD?MODBUSHOST
0009C3H   0009D3H   000011H   BYTE   UNIT     EDATA          ?ED?SMOTHCPSCALCRATE?CALCDOSERATE
0009D4H   0009E1H   00000EH   BYTE   UNIT     EDATA          ?ED?READBATVOL?CMD
0009E2H   0009EEH   00000DH   BYTE   UNIT     EDATA          ?ED?DWORDTOSMALL?CMD
0009EFH   0009FBH   00000DH   BYTE   UNIT     EDATA          ?ED?FLOATTOSMALL?CMD
0009FCH   000A08H   00000DH   BYTE   UNIT     EDATA          ?ED?DATAPRO?CMD
000A09H   000A14H   00000CH   BYTE   UNIT     EDATA          ?ED?LCDCMD?LCD
000A15H   000A20H   00000CH   BYTE   UNIT     EDATA          ?ED?FLOATTOBYTES?MODBUS
000A21H   000A2CH   00000CH   BYTE   UNIT     EDATA          ?ED?BYTESTOFLOAT?MODBUS
000A2DH   000A38H   00000CH   BYTE   UNIT     EDATA          ?ED?BYTESTODWORD?MODBUS
000A39H   000A42H   00000AH   BYTE   UNIT     EDATA          ?ED?PARAMCHECK?MAIN
000A43H   000A4CH   00000AH   BYTE   UNIT     EDATA          ?ED?EEPROM_READ?EEPROM
000A4DH   000A56H   00000AH   BYTE   UNIT     EDATA          ?ED?SETRUNTIME?LCDAPP
000A57H   000A60H   00000AH   BYTE   UNIT     EDATA          ?ED?PACKAGEFLOATVALUE?MODBUSDEV
000A61H   000A6AH   00000AH   BYTE   UNIT     EDATA          ?ED?PACKAGEDWORDVALUE?MODBUSDEV
000A6BH   000A74H   00000AH   BYTE   UNIT     EDATA          ?ED?SENDTCPFRAME?MODBUSHOST
000A75H   000A7DH   000009H   BYTE   UNIT     EDATA          ?ED?CAPTURESENSORPLUSECOUNTER?SENSOR
000A7EH   000A86H   000009H   BYTE   UNIT     EDATA          ?ED?CHECKSUM?CMD
000A87H   000A8EH   000008H   BYTE   UNIT     EDATA          ?ED?CHAR2UNICODE?MAIN
000A8FH   000A96H   000008H   BYTE   UNIT     EDATA          ?ED?POPCHAR?LCD
000A97H   000A9EH   000008H   BYTE   UNIT     EDATA          ?ED?HIDECONTROL?LCD
000A9FH   000AA6H   000008H   BYTE   UNIT     EDATA          ?ED?SHOWCONTROL?LCD
000AA7H   000AAEH   000008H   BYTE   UNIT     EDATA          ?ED?BYTECONVERT?MODBUS
000AAFH   000AB6H   000008H   BYTE   UNIT     EDATA          ?ED?BYTESTOWORD?MODBUS
000AB7H   000ABEH   000008H   BYTE   UNIT     EDATA          ?ED?SWENDIAN?MODBUS
000ABFH   000AC6H   000008H   BYTE   UNIT     EDATA          ?ED?GETNAIDOSERATE?CALCDOSERATE
000AC7H   000ACEH   000008H   BYTE   UNIT     EDATA          ?ED?CALCALARMSTATE?SENSOR
000ACFH   000AD6H   000008H   BYTE   UNIT     EDATA          ?ED?SENDDATA?CMD
000AD7H   000ADEH   000008H   BYTE   UNIT     EDATA          ?ED?SETCS?CMD
000ADFH   000AE5H   000007H   BYTE   UNIT     EDATA          ?ED?VALIDRTUFRAME?MODBUS
000AE6H   000AECH   000007H   BYTE   UNIT     EDATA          ?ED?READACK?MODBUSDEV
000AEDH   000AF3H   000007H   BYTE   UNIT     EDATA          ?ED?SENDBUFFER?MODBUSHOST
000AF4H   000AFAH   000007H   BYTE   UNIT     EDATA          ?ED?WORDTOSMALL?CMD
000AFBH   000B00H   000006H   BYTE   UNIT     EDATA          ?ED?DUMPCMD?MAIN
000B01H   000B06H   000006H   BYTE   UNIT     EDATA          ?ED?DELAYMS?MAIN
000B07H   000B0CH   000006H   BYTE   UNIT     EDATA          ?ED?UART1SEND?UART
000B0DH   000B12H   000006H   BYTE   UNIT     EDATA          ?ED?UART2SEND?UART
000B13H   000B18H   000006H   BYTE   UNIT     EDATA          ?ED?UART3SEND?UART
000B19H   000B1EH   000006H   BYTE   UNIT     EDATA          ?ED?UART4SEND?UART
000B1FH   000B24H   000006H   BYTE   UNIT     EDATA          ?ED?VALIDLCDFRAME?LCD
000B25H   000B2AH   000006H   BYTE   UNIT     EDATA          ?ED?POPWORD?LCD
000B2BH   000B30H   000006H   BYTE   UNIT     EDATA          ?ED?SHOWMODULE?LCD
000B31H   000B36H   000006H   BYTE   UNIT     EDATA          ?ED?READREG?LCDAPP
L251 LINKER/LOCATER V4.66.93.0                                                        02/28/2025  09:05:19  PAGE 4


000B37H   000B3CH   000006H   BYTE   UNIT     EDATA          ?ED?VALIDTCPFRAME?MODBUS
000B3DH   000B42H   000006H   BYTE   UNIT     EDATA          ?ED?PACKAGEWORDVALUE?MODBUSDEV
000B43H   000B48H   000006H   BYTE   UNIT     EDATA          ?ED?HNDMODBUSRECV?MODBUSDEV
000B49H   000B4EH   000006H   BYTE   UNIT     EDATA          ?ED?GETHIS?CALCDOSERATE
000B4FH   000B54H   000006H   BYTE   UNIT     EDATA          ?ED?CPSFILTER?CALCDOSERATE
000B55H   000B59H   000005H   BYTE   UNIT     EDATA          ?ED?DEBUGMSG?MAIN
000B5AH   000B5EH   000005H   BYTE   UNIT     EDATA          ?ED?GETDOSERATE?MAIN
000B5FH   000B63H   000005H   BYTE   UNIT     EDATA          ?ED?CHECKDATALEN?LCD
000B64H   000B68H   000005H   BYTE   UNIT     EDATA          ?ED?ENTERPAGE?LCD
000B69H   000B6DH   000005H   BYTE   UNIT     EDATA          ?ED?LCDAPP
000B6EH   000B72H   000005H   BYTE   UNIT     EDATA          ?ED?PDPROBE_ACK?PD_PROBE
000B73H   000B77H   000005H   BYTE   UNIT     EDATA          ?ED?PUSHCPS?CALCDOSERATE
000B78H   000B7CH   000005H   BYTE   UNIT     EDATA          ?ED?BACKPH?CALCDOSERATE
000B7DH   000B81H   000005H   BYTE   UNIT     EDATA          ?ED?COUNTERPH?CALCDOSERATE
000B82H   000B86H   000005H   BYTE   UNIT     EDATA          ?ED?WRITEFIX?CMD
000B87H   000B8AH   000004H   BYTE   UNIT     EDATA          ?ED?RUNLED?MAIN
000B8BH   000B8EH   000004H   BYTE   UNIT     EDATA          ?ED?DELAY?MAIN
000B8FH   000B92H   000004H   BYTE   UNIT     EDATA          ?ED?DELAY_MS?MAIN
000B93H   000B96H   000004H   BYTE   UNIT     EDATA          ?ED?EEPROM_SECTORERASE?EEPROM
000B97H   000B9AH   000004H   BYTE   UNIT     EDATA          ?ED?SWDWORD?LCD
000B9BH   000B9EH   000004H   BYTE   UNIT     EDATA          ?ED?HNDLCDFRAME?LCD
000B9FH   000BA2H   000004H   BYTE   UNIT     EDATA          ?ED?SETTEXTINTEGERNUM?LCD
000BA3H   000BA6H   000004H   BYTE   UNIT     EDATA          ?ED?SETTEXTCOLOR?LCD
000BA7H   000BAAH   000004H   BYTE   UNIT     EDATA          ?ED?HIDEMODULE?LCD
000BABH   000BAEH   000004H   BYTE   UNIT     EDATA          ?ED?SHOWICON?LCD
000BAFH   000BB2H   000004H   BYTE   UNIT     EDATA          ?ED?SHOWLIGHT?LCD
000BB3H   000BB6H   000004H   BYTE   UNIT     EDATA          ?ED?SHOWSPIN?LCD
000BB7H   000BBAH   000004H   BYTE   UNIT     EDATA          ?ED?MCP4725
000BBBH   000BBEH   000004H   BYTE   UNIT     EDATA          ?ED?SWENDIANW?MODBUS
000BBFH   000BC2H   000004H   BYTE   UNIT     EDATA          ?ED?MODBUSHOST
000BC3H   000BC6H   000004H   BYTE   UNIT     EDATA          ?ED?GETNAICOUNTER?SYSTEM
000BC7H   000BCAH   000004H   BYTE   UNIT     EDATA          ?ED?GETCOUNTER?SYSTEM
000BCBH   000BCEH   000004H   BYTE   UNIT     EDATA          ?ED?GETHIGHTCOUNTER?SYSTEM
000BCFH   000BD2H   000004H   BYTE   UNIT     EDATA          ?ED?PD_PROBE
000BD3H   000BD6H   000004H   BYTE   UNIT     EDATA          ?ED?READPD_ACK?PD_PROBE
000BD7H   000BDAH   000004H   BYTE   UNIT     EDATA          ?ED?ADDCOUNTER?CALCDOSERATE
000BDBH   000BDEH   000004H   BYTE   UNIT     EDATA          ?ED?USELOWPARAM?SENSOR
000BDFH   000BE2H   000004H   BYTE   UNIT     EDATA          ?ED?USEHIGHPARAM?SENSOR
000BE3H   000BE6H   000004H   BYTE   UNIT     EDATA          ?ED?USESLPARAM?SENSOR
000BE7H   000BEAH   000004H   BYTE   UNIT     EDATA          ?ED?DRFIX?SENSOR
000BEBH   000BEEH   000004H   BYTE   UNIT     EDATA          ?ED?READCS?CMD
000BEFH   000BF2H   000004H   BYTE   UNIT     EDATA          ?ED?ACK_CMD_TIME?CMD
000BF3H   000BF5H   000003H   BYTE   UNIT     EDATA          ?ED?SETBKLIGHT?LCD
000BF6H   000BF8H   000003H   BYTE   UNIT     EDATA          ?ED?WRITEACK?MODBUSDEV
000BF9H   000BFAH   000002H   BYTE   UNIT     EDATA          ?ED?DEBUGINT?MAIN
000BFBH   000BFCH   000002H   BYTE   UNIT     EDATA          ?ED?OUTCTL?MAIN
000BFDH   000BFEH   000002H   BYTE   UNIT     EDATA          ?ED?TIMERTASK?MAIN
000BFFH   000C00H   000002H   BYTE   UNIT     EDATA          ?ED?SWWORD?LCD
000C01H   000C02H   000002H   BYTE   UNIT     EDATA          ?ED?SHOWLIGHTON?LCD
000C03H   000C04H   000002H   BYTE   UNIT     EDATA          ?ED?STATUSCOLOR?LCDAPP
000C05H   000C06H   000002H   BYTE   UNIT     EDATA          ?ED?REGSW?MODBUS
000C07H   000C08H   000002H   BYTE   UNIT     EDATA          ?ED?POPREG?MODBUSHOST
000C09H   000C0AH   000002H   BYTE   UNIT     EDATA          ?ED?SENDREADPD?PD_PROBE
000C0BH   000C0CH   000002H   BYTE   UNIT     EDATA          ?ED?SENDREADPD_DOSERATE?PD_PROBE
000C0DH   000C0EH   000002H   BYTE   UNIT     EDATA          ?ED?SENDREADPD_ALARM?PD_PROBE
000C0FH   000C10H   000002H   BYTE   UNIT     EDATA          ?ED?SENDREADPD_THR?PD_PROBE
000C11H   000C12H   000002H   BYTE   UNIT     EDATA          ?ED?SENDREADPD_FIX?PD_PROBE
000C13H   000C14H   000002H   BYTE   UNIT     EDATA          ?ED?SENDREADPD_INFO?PD_PROBE
000C15H   000C16H   000002H   BYTE   UNIT     EDATA          ?ED?SENDREADPD_ADDRESS?PD_PROBE
000C17H   000C18H   000002H   BYTE   UNIT     EDATA          ?ED?SENDREADPD_VER?PD_PROBE
000C19H   000C1AH   000002H   BYTE   UNIT     EDATA          ?ED?WRITEPD_ALARM?PD_PROBE
000C1BH   000C1CH   000002H   BYTE   UNIT     EDATA          ?ED?WRITEPD_THR?PD_PROBE
000C1DH   000C1EH   000002H   BYTE   UNIT     EDATA          ?ED?WRITEPD_FIX?PD_PROBE
000C1FH   000C20H   000002H   BYTE   UNIT     EDATA          ?ED?WRITEPD_INFO?PD_PROBE
000C21H   000C22H   000002H   BYTE   UNIT     EDATA          ?ED?WRITEPD_ADDRESS?PD_PROBE
L251 LINKER/LOCATER V4.66.93.0                                                        02/28/2025  09:05:19  PAGE 5


000C23H   000C24H   000002H   BYTE   UNIT     EDATA          ?ED?RESVCPS?CALCDOSERATE
000C25H   000C25H   000001H   BYTE   UNIT     EDATA          ?ED?OUTFLASH?MAIN
000C26H   000C26H   000001H   BYTE   UNIT     EDATA          ?ED?IOCTLTASK?MAIN
000C27H   000C27H   000001H   BYTE   UNIT     EDATA          ?ED?DEVPARAMDEF?MAIN
000C28H   000C28H   000001H   BYTE   UNIT     EDATA          ?ED?STARTMP3?MAIN
000C29H   000C29H   000001H   BYTE   UNIT     EDATA          ?ED?STOPMP3?MAIN
000C2AH   000C2AH   000001H   BYTE   UNIT     EDATA          ?ED?ABNORALARM?MAIN
000C2BH   000C2BH   000001H   BYTE   UNIT     EDATA          ?ED?SYNCMODBUSDEV?MAIN
000C2CH   000C2CH   000001H   BYTE   UNIT     EDATA          ?ED?PUTCHAR?UART
000C2DH   000C2DH   000001H   BYTE   UNIT     EDATA          ?ED?I2C
000C2EH   000C2EH   000001H   BYTE   UNIT     EDATA          ?ED?DELAY_US?I2C
000C2FH   000C2FH   000001H   BYTE   UNIT     EDATA          ?ED?GETLCDTIME?LCD
000C30H   000C30H   000001H   BYTE   UNIT     EDATA          ?ED?GETRETCODE?LCDAPP
000C31H   000C31H   000001H   BYTE   UNIT     EDATA          ?ED?GETINPUTTIME?LCDAPP
000C32H   000C32H   000001H   BYTE   UNIT     EDATA          ?ED?SETREGVALUE?MODBUSDEV
000C33H   000C33H   000001H   BYTE   UNIT     EDATA          ?ED?MODBUSPDSAVE?PD_PROBE
000C34H   000C34H   000001H   BYTE   UNIT     EDATA          ?ED?INITARR?CALCDOSERATE
000C35H   000C35H   000001H   BYTE   UNIT     EDATA          ?ED?READFIX?CMD
000C36H   000C36H   000001H   BYTE   UNIT     EDATA          ?ED?ACK_CMD_H?CMD
000C37H   000C37H   000001H   BYTE   UNIT     EDATA          ?ED?ACK_CMD_Q?CMD
000C38H   000D37H   000100H   BYTE   UNIT     EDATA          ?STACK
000D38H   00FFFFH   00F2C8H   ---    ---      **GAP**
010000H   0102ECH   0002EDH   BYTE   INSEG    XDATA          ?XD?MODBUSDEV
0102EDH   010501H   000215H   BYTE   INSEG    XDATA          ?XD?MODBUSHOST
010502H   0106D5H   0001D4H   BYTE   INSEG    XDATA          ?XD?MAIN
0106D6H   010865H   000190H   BYTE   INSEG    XDATA          ?XD?LCD
010866H   0109EBH   000186H   BYTE   INSEG    XDATA          ?XD?LCDAPP
0109ECH   FEFFFFH   FDF614H   ---    ---      **GAP**
FF0000H   FF0002H   000003H   ---    OFFS..   CODE           ?CO?start251?4
FF0003H   FF000AH   000008H   BYTE   INSEG    CODE           ?PR?ADDCOUNTER?CALCDOSERATE
FF000BH   FF000DH   000003H   ---    OFFS..   CODE           ?PR?IV?1
FF000EH   FF001AH   00000DH   BYTE   INSEG    CODE           ?PR?LEDINIT?MAIN
FF001BH   FF001DH   000003H   ---    OFFS..   CODE           ?PR?IV?3
FF001EH   FF0022H   000005H   BYTE   INSEG    CODE           ?PR?SWWORD?LCD
FF0023H   FF0025H   000003H   ---    OFFS..   CODE           ?PR?IV?4
FF0026H   FF0042H   00001DH   BYTE   INSEG    CODE           ?PR?CLEARCOUNTER?CALCDOSERATE
FF0043H   FF0045H   000003H   ---    OFFS..   CODE           ?PR?IV?8
FF0046H   FF008AH   000045H   BYTE   INSEG    CODE           ?PR?WRITEPARAM?MAIN
FF008BH   FF008DH   000003H   ---    OFFS..   CODE           ?PR?IV?17
FF008EH   FF0092H   000005H   BYTE   INSEG    CODE           ?PR?REGSW?MODBUS
FF0093H   FF0095H   000003H   ---    OFFS..   CODE           ?PR?IV?18
FF0096H   FF0099H   000004H   BYTE   INSEG    CODE           ?PR?SAVEPARAM?MAIN
FF009AH   FF009AH   000001H   BYTE   UNIT     CODE           ?CO?MAIN
FF009BH   FF009DH   000003H   ---    OFFS..   CODE           ?PR?IV?19
FF009EH   FF00A0H   000003H   BYTE   INSEG    CODE           ?PR?WRITEPD_ACK?PD_PROBE
FF00A1H   FF00A1H   000001H   BYTE   INSEG    CODE           ?PR?WRITEREG?LCDAPP
FF00A2H   FF00A2H   000001H   ---    ---      **GAP**
FF00A3H   FF00A5H   000003H   ---    OFFS..   CODE           ?PR?IV?20
FF00A6H   FF0129H   000084H   BYTE   INSEG    CODE           ?PR?SHOWCPS?LCDAPP
FF012AH   FF012AH   000001H   ---    ---      **GAP**
FF012BH   FF012FH   000005H   ---    OFFS..   CODE           ?CO?ISR?1
FF0130H   FF0132H   000003H   ---    ---      **GAP**
FF0133H   FF0137H   000005H   ---    OFFS..   CODE           ?CO?ISR?2
FF0138H   FF0BC4H   000A8DH   BYTE   UNIT     CODE           ?C?LIB_CODE
FF0BC5H   FF1007H   000443H   BYTE   INSEG    CODE           ?PR?DEVPARAMDEF?MAIN
FF1008H   FF1439H   000432H   BYTE   INSEG    CODE           ?PR?DATAPRO?CMD
FF143AH   FF178AH   000351H   BYTE   INSEG    CODE           ?PR?MCP4725_OUTVOL?MCP4725
FF178BH   FF1A3BH   0002B1H   BYTE   INSEG    CODE           ?PR?ACK_CMD_W?CMD
FF1A3CH   FF1C9EH   000263H   BYTE   INSEG    CODE           ?PR?CPSFILTER?CALCDOSERATE
FF1C9FH   FF1EFCH   00025EH   BYTE   INSEG    CODE           ?PR?ACK_CMD_R?CMD
FF1EFDH   FF2112H   000216H   BYTE   INSEG    CODE           ?PR?CALCALARMSTATE?SENSOR
FF2113H   FF22F9H   0001E7H   BYTE   INSEG    CODE           ?PR?CAPTURESENSORPLUSECOUNTER?SENSOR
FF22FAH   FF24C3H   0001CAH   BYTE   INSEG    CODE           ?PR?ETH_INIT?MAIN
FF24C4H   FF2657H   000194H   BYTE   INSEG    CODE           ?PR?DRFIX?SENSOR
FF2658H   FF27DFH   000188H   BYTE   INSEG    CODE           ?PR?WRITEFIX?CMD
L251 LINKER/LOCATER V4.66.93.0                                                        02/28/2025  09:05:19  PAGE 6


FF27E0H   FF293FH   000160H   BYTE   INSEG    CODE           ?PR?READFIX?CMD
FF2940H   FF2A73H   000134H   BYTE   INSEG    CODE           ?PR?HOSTSENDCMD?MODBUSHOST
FF2A74H   FF2BA4H   000131H   BYTE   INSEG    CODE           ?PR?SYNCMODBUSDEV?MAIN
FF2BA5H   FF2CD3H   00012FH   BYTE   INSEG    CODE           ?PR?ACK_CMD_B?CMD
FF2CD4H   FF2E00H   00012DH   BYTE   INSEG    CODE           ?PR?ACK_CMD_P?CMD
FF2E01H   FF2F24H   000124H   BYTE   INSEG    CODE           ?PR?GETDOSERATE?MAIN
FF2F25H   FF3045H   000121H   BYTE   INSEG    CODE           ?PR?ACK_CMD_V?CMD
FF3046H   FF3162H   00011DH   BYTE   INSEG    CODE           ?PR?BACKPH?CALCDOSERATE
FF3163H   FF3277H   000115H   BYTE   INSEG    CODE           ?PR?EEPROM_WRITE?EEPROM
FF3278H   FF338AH   000113H   BYTE   INSEG    CODE           ?PR?SENDDATA?CMD
FF338BH   FF349BH   000111H   BYTE   INSEG    CODE           ?PR?MODBUSPDSAVE?PD_PROBE
FF349CH   FF35ACH   000111H   BYTE   INSEG    CODE           ?PR?COUNTERPH?CALCDOSERATE
FF35ADH   FF36B6H   00010AH   BYTE   INSEG    CODE           ?PR?ABNORALARM?MAIN
FF36B7H   FF37C0H   00010AH   BYTE   INSEG    CODE           ?PR?ACK_CMD_F?CMD
FF37C1H   FF38C7H   000107H   BYTE   INSEG    CODE           ?PR?CALC_PD_ALARMSTATE?PD_PROBE
FF38C8H   FF39CEH   000107H   BYTE   INSEG    CODE           ?PR?USEHIGHPARAM?SENSOR
FF39CFH   FF3AC0H   0000F2H   BYTE   INSEG    CODE           ?PR?STATUSCOLOR?LCDAPP
FF3AC1H   FF3B9AH   0000DAH   BYTE   INSEG    CODE           ?PR?TIMERTASK?MAIN
FF3B9BH   FF3C65H   0000CBH   BYTE   INSEG    CODE           ?PR?USELOWPARAM?SENSOR
FF3C66H   FF3D2EH   0000C9H   BYTE   INSEG    CODE           ?PR?CHECKDOSERATE?MAIN
FF3D2FH   FF3DF7H   0000C9H   BYTE   INSEG    CODE           ?PR?SET_PD_DOSERATEUNIT?PD_PROBE
FF3DF8H   FF3EC0H   0000C9H   BYTE   INSEG    CODE           ?PR?SET_LP_DOSERATEUNIT?SENSOR
FF3EC1H   FF3F84H   0000C4H   BYTE   INSEG    CODE           ?PR?MAIN?MAIN
FF3F85H   FF4046H   0000C2H   BYTE   INSEG    CODE           ?PR?SMOTHCPSCALCRATE?CALCDOSERATE
FF4047H   FF4100H   0000BAH   BYTE   INSEG    CODE           ?PR?CRC16CALC?MODBUS
FF4101H   FF41B5H   0000B5H   BYTE   INSEG    CODE           ?PR?LCDCMD?LCD
FF41B6H   FF4269H   0000B4H   BYTE   INSEG    CODE           ?PR?READPD_ACK?PD_PROBE
FF426AH   FF4315H   0000ACH   BYTE   INSEG    CODE           ?PR?STARTMP3?MAIN
FF4316H   FF43BBH   0000A6H   BYTE   INSEG    CODE           ?PR?CHECKALARM?MAIN
FF43BCH   FF4460H   0000A5H   BYTE   INSEG    CODE           ?PR?CPSTOUSV_H?CALCDOSERATE
FF4461H   FF4502H   0000A2H   BYTE   INSEG    CODE           ?PR?STOPMP3?MAIN
FF4503H   FF459BH   000099H   BYTE   INSEG    CODE           ?PR?ACK_CMD_N?CMD
FF459CH   FF462BH   000090H   BYTE   INSEG    CODE           ?PR?TASK1S?MAIN
FF462CH   FF46BAH   00008FH   BYTE   INSEG    CODE           ?PR?PUSHCPS?CALCDOSERATE
FF46BBH   FF4748H   00008EH   BYTE   INSEG    CODE           ?PR?INITLCD?MAIN
FF4749H   FF47D6H   00008EH   BYTE   INSEG    CODE           ?PR?OUTCTL?MAIN
FF47D7H   FF4862H   00008CH   BYTE   INSEG    CODE           ?PR?SHOWDOSERATE?LCDAPP
FF4863H   FF48E8H   000086H   BYTE   INSEG    CODE           ?PR?PROBESELECT?MAIN
FF48E9H   FF496BH   000083H   BYTE   INSEG    CODE           ?PR?GETNAIDOSERATE?CALCDOSERATE
FF496CH   FF49EBH   000080H   BYTE   INSEG    CODE           ?PR?ALMCONFIRM?MAIN
FF49ECH   FF4A6AH   00007FH   BYTE   INSEG    CODE           ?PR?ATOI?_?ATOI
FF4A6BH   FF4AE6H   00007CH   BYTE   INSEG    CODE           ?PR?ACK_CMD_J?CMD
FF4AE7H   FF4B5CH   000076H   BYTE   INSEG    CODE           ?PR?PDPROBE_ACK?PD_PROBE
FF4B5DH   FF4BD1H   000075H   BYTE   INSEG    CODE           ?PR?SETLCDTIME?LCD
FF4BD2H   FF4C46H   000075H   BYTE   INSEG    CODE           ?PR?SHOWBORDERR?LCDAPP
FF4C47H   FF4CBBH   000075H   BYTE   INSEG    CODE           ?PR?SHOWBORDERY?LCDAPP
FF4CBCH   FF4CCEH   000013H   BYTE   UNIT     CODE           ?C_C51STARTUP
FF4CCFH   FF4D28H   00005AH   BYTE   UNIT     CODE           ?C_C51STARTUP?2
FF4D29H   FF4D2BH   000003H   BYTE   UNIT     CODE           ?C_C51STARTUP?3
FF4D2CH   FF4D97H   00006CH   BYTE   INSEG    CODE           ?PR?EEPROM_READ?EEPROM
FF4D98H   FF4E00H   000069H   BYTE   INSEG    CODE           ?PR?ACK_CMD_WINFO?CMD
FF4E01H   FF4E64H   000064H   BYTE   INSEG    CODE           ?PR?VALIDLCDFRAME?LCD
FF4E65H   FF4EC7H   000063H   BYTE   INSEG    CODE           ?PR?CHAR2UNICODE?MAIN
FF4EC8H   FF4F28H   000061H   BYTE   INSEG    CODE           ?PR?DEV_INIT?MAIN
FF4F29H   FF4F89H   000061H   BYTE   INSEG    CODE           ?PR?OUTFLASH?MAIN
FF4F8AH   FF4FEAH   000061H   BYTE   INSEG    CODE           ?PR?SHOWDEVINFO?LCDAPP
FF4FEBH   FF5049H   00005FH   BYTE   INSEG    CODE           ?PR?FLOATTOSMALL?CMD
FF504AH   FF50A8H   00005FH   BYTE   INSEG    CODE           ?PR?DWORDTOSMALL?CMD
FF50A9H   FF5104H   00005CH   BYTE   INSEG    CODE           ?PR?GENERALPARAM?MAIN
FF5105H   FF5160H   00005CH   BYTE   INSEG    CODE           ?PR?SHOWVAL?LCD
FF5161H   FF51BAH   00005AH   BYTE   INSEG    CODE           ?PR?INITARR?CALCDOSERATE
FF51BBH   FF520FH   000055H   BYTE   INSEG    CODE           ?PR?READPARAM?MAIN
FF5210H   FF5264H   000055H   BYTE   INSEG    CODE           ?PR?POPWORD?LCD
FF5265H   FF52B6H   000052H   BYTE   INSEG    CODE           ?PR?IOCTLTASK?MAIN
FF52B7H   FF5308H   000052H   BYTE   INSEG    CODE           ?PR?GETHIGHTCOUNTER?SYSTEM
L251 LINKER/LOCATER V4.66.93.0                                                        02/28/2025  09:05:19  PAGE 7


FF5309H   FF535AH   000052H   BYTE   INSEG    CODE           ?PR?GETCOUNTER?SYSTEM
FF535BH   FF53ACH   000052H   BYTE   INSEG    CODE           ?PR?ACK_CMD_RINFO?CMD
FF53ADH   FF53F8H   00004CH   BYTE   INSEG    CODE           ?PR?PARAMCHECK?MAIN
FF53F9H   FF5443H   00004BH   BYTE   INSEG    CODE           ?PR?GETINPUT?MAIN
FF5444H   FF548EH   00004BH   BYTE   INSEG    CODE           ?PR?UART2_INT?UART
FF548FH   FF54D9H   00004BH   BYTE   INSEG    CODE           ?PR?UART3_INT?UART
FF54DAH   FF5524H   00004BH   BYTE   INSEG    CODE           ?PR?UART4_INT?UART
FF5525H   FF556EH   00004AH   BYTE   INSEG    CODE           ?PR?GETNAICOUNTER?SYSTEM
FF556FH   FF55B7H   000049H   BYTE   INSEG    CODE           ?PR?READREG?LCDAPP
FF55B8H   FF55FFH   000048H   BYTE   INSEG    CODE           ?PR?DEVRUN?MAIN
FF5600H   FF5647H   000048H   BYTE   INSEG    CODE           ?PR?HNDLCDFRAME?LCD
FF5648H   FF568EH   000047H   BYTE   INSEG    CODE           ?PR?RUNLED?MAIN
FF568FH   FF56D5H   000047H   BYTE   INSEG    CODE           ?PR?UART1_INT?UART
FF56D6H   FF571BH   000046H   BYTE   INSEG    CODE           ?PR?UART4SEND?UART
FF571CH   FF575BH   000040H   BYTE   INSEG    CODE           ?PR?IOINIT?MAIN
FF575CH   FF579BH   000040H   BYTE   INSEG    CODE           ?PR?UART2_CONFIG?UART
FF579CH   FF57DBH   000040H   BYTE   INSEG    CODE           ?PR?UART1SEND?UART
FF57DCH   FF581BH   000040H   BYTE   INSEG    CODE           ?PR?UART2SEND?UART
FF581CH   FF585BH   000040H   BYTE   INSEG    CODE           ?PR?UART3SEND?UART
FF585CH   FF589AH   00003FH   BYTE   INSEG    CODE           ?PR?SENDTCPFRAME?MODBUSHOST
FF589BH   FF58D8H   00003EH   BYTE   INSEG    CODE           ?PR?STOPALMLIGHT?MAIN
FF58D9H   FF5916H   00003EH   BYTE   INSEG    CODE           ?PR?SETCS?CMD
FF5917H   FF5951H   00003BH   BYTE   INSEG    CODE           ?PR?DEBUGINT?MAIN
FF5952H   FF598BH   00003AH   BYTE   INSEG    CODE           ?PR?UART1HND?UART
FF598CH   FF59C1H   000036H   BYTE   INSEG    CODE           ?PR?UART1_CONFIG?UART
FF59C2H   FF59F6H   000035H   BYTE   INSEG    CODE           ?PR?DELAY_MS?MAIN
FF59F7H   FF5A29H   000033H   BYTE   INSEG    CODE           ?PR?SENDCPS?LCDAPP
FF5A2AH   FF5A5BH   000032H   BYTE   INSEG    CODE           ?PR?TIMER0_ISR?SYSTEM
FF5A5CH   FF5A8CH   000031H   BYTE   INSEG    CODE           ?PR?UART3_CONFIG?UART
FF5A8DH   FF5ABDH   000031H   BYTE   INSEG    CODE           ?PR?UART4_CONFIG?UART
FF5ABEH   FF5AEDH   000030H   BYTE   INSEG    CODE           ?PR?CHECKDEVINFO?MAIN
FF5AEEH   FF5B1CH   00002FH   BYTE   INSEG    CODE           ?PR?MEMCMP?_?MEMCMP
FF5B1DH   FF5B49H   00002DH   BYTE   INSEG    CODE           ?PR?EEPROM_SECTORERASE?EEPROM
FF5B4AH   FF5B76H   00002DH   BYTE   INSEG    CODE           ?PR?ACK_CMD_Q?CMD
FF5B77H   FF5BA3H   00002DH   BYTE   INSEG    CODE           ?PR?ALARMCONFIRM?CMD
FF5BA4H   FF5BCEH   00002BH   BYTE   INSEG    CODE           ?PR?SENDBUFFER?MODBUSHOST
FF5BCFH   FF5BF9H   00002BH   BYTE   INSEG    CODE           ?PR?WRITEPD_THR?PD_PROBE
FF5BFAH   FF5C24H   00002BH   BYTE   INSEG    CODE           ?PR?WRITEPD_FIX?PD_PROBE
FF5C25H   FF5C4CH   000028H   BYTE   INSEG    CODE           ?PR?SYSINIT?SYSTEM
FF5C4DH   FF5C73H   000027H   BYTE   INSEG    CODE           ?PR?VALIDRTUFRAME?MODBUS
FF5C74H   FF5C9AH   000027H   BYTE   INSEG    CODE           ?PR?READCS?CMD
FF5C9BH   FF5CC0H   000026H   BYTE   INSEG    CODE           ?PR?HIDEMODULE?LCD
FF5CC1H   FF5CE5H   000025H   BYTE   INSEG    CODE           ?PR?HIDEBORDER?LCDAPP
FF5CE6H   FF5D0AH   000025H   BYTE   INSEG    CODE           ?PR?SENDREADPD?PD_PROBE
FF5D0BH   FF5D2FH   000025H   BYTE   INSEG    CODE           ?PR?MEMCPY?_?MEMCPY
FF5D30H   FF5D53H   000024H   BYTE   INSEG    CODE           ?PR?SHOWMODULE?LCD
FF5D54H   FF5D77H   000024H   BYTE   INSEG    CODE           ?PR?CPS_CHECK?LCDAPP
FF5D78H   FF5D9BH   000024H   BYTE   UNIT     CODE           ?CO?LCDAPP
FF5D9CH   FF5DBDH   000022H   BYTE   INSEG    CODE           ?PR?SHOWCONTROL?LCD
FF5DBEH   FF5DDFH   000022H   BYTE   INSEG    CODE           ?PR?SHOWLIGHTON?LCD
FF5DE0H   FF5E01H   000022H   BYTE   INSEG    CODE           ?PR?HIDECONTROL?LCD
FF5E02H   FF5E22H   000021H   BYTE   INSEG    CODE           ?PR?UART2HND?UART
FF5E23H   FF5E43H   000021H   BYTE   INSEG    CODE           ?PR?UART4HND?UART
FF5E44H   FF5E62H   00001FH   BYTE   INSEG    CODE           ?PR?LX_MP3_INIT?MAIN
FF5E63H   FF5E81H   00001FH   BYTE   INSEG    CODE           ?PR?SETTEXTCOLOR?LCD
FF5E82H   FF5EA0H   00001FH   BYTE   INSEG    CODE           ?PR?SETTEXTINTEGERNUM?LCD
FF5EA1H   FF5EBCH   00001CH   BYTE   INSEG    CODE           ?PR?SHOWLIGHT?LCD
FF5EBDH   FF5ED8H   00001CH   BYTE   INSEG    CODE           ?PR?SHOWSPIN?LCD
FF5ED9H   FF5EF3H   00001BH   BYTE   INSEG    CODE           ?PR?CLEARREVBUF?LCD
FF5EF4H   FF5F0EH   00001BH   BYTE   INSEG    CODE           ?PR?SENSORINIT?SENSOR
FF5F0FH   FF5F28H   00001AH   BYTE   INSEG    CODE           ?PR?MEMSET?_?MEMSET
FF5F29H   FF5F41H   000019H   BYTE   INSEG    CODE           ?PR?DELAY_US?I2C
FF5F42H   FF5F5AH   000019H   BYTE   INSEG    CODE           ?PR?SHOWICON?LCD
FF5F5BH   FF5F72H   000018H   BYTE   INSEG    CODE           ?PR?EEPROM_TRIG?EEPROM
FF5F73H   FF5F8AH   000018H   BYTE   INSEG    CODE           ?PR?TIMER0_INIT?SYSTEM
L251 LINKER/LOCATER V4.66.93.0                                                        02/28/2025  09:05:19  PAGE 8


FF5F8BH   FF5FA1H   000017H   BYTE   INSEG    CODE           ?PR?ERROR?MAIN
FF5FA2H   FF5FB8H   000017H   BYTE   INSEG    CODE           ?PR?POWEROFF?MAIN
FF5FB9H   FF5FCFH   000017H   BYTE   INSEG    CODE           ?PR?HNDLCDDATA?LCD
FF5FD0H   FF5FE5H   000016H   BYTE   INSEG    CODE           ?PR?UPDATAUI?MAIN
FF5FE6H   FF5FFBH   000016H   BYTE   INSEG    CODE           ?PR?UART3HND?UART
FF5FFCH   FF6011H   000016H   BYTE   INSEG    CODE           ?PR?DISABLEEEPROM?EEPROM
FF6012H   FF6027H   000016H   BYTE   INSEG    CODE           ?PR?SENSORMEASUREBEGIN?SENSOR
FF6028H   FF603DH   000016H   BYTE   INSEG    CODE           ?PR?REFRESHPARAM?SENSOR
FF603EH   FF6052H   000015H   BYTE   INSEG    CODE           ?PR?ACK_CMD_H?CMD
FF6053H   FF6066H   000014H   BYTE   INSEG    CODE           ?PR?ISSPACE?_?ISSPACE
FF6067H   FF6078H   000012H   BYTE   INSEG    CODE           ?PR?CLEARUART1BUF?UART
FF6079H   FF608AH   000012H   BYTE   INSEG    CODE           ?PR?CLEARUART2BUF?UART
FF608BH   FF609CH   000012H   BYTE   INSEG    CODE           ?PR?CLEARUART3BUF?UART
FF609DH   FF60AEH   000012H   BYTE   INSEG    CODE           ?PR?CLEARUART4BUF?UART
FF60AFH   FF60C0H   000012H   BYTE   INSEG    CODE           ?PR?TIMER1_ISR?SYSTEM
FF60C1H   FF60D2H   000012H   BYTE   INSEG    CODE           ?PR?TIMER3_ISR?SYSTEM
FF60D3H   FF60E4H   000012H   BYTE   INSEG    CODE           ?PR?TIMER4_ISR?SYSTEM
FF60E5H   FF60F5H   000011H   BYTE   INSEG    CODE           ?PR?TIMER1_INIT?SYSTEM
FF60F6H   FF6106H   000011H   BYTE   INSEG    CODE           ?PR?ACK_CMD_TIME?CMD
FF6107H   FF6117H   000011H   BYTE   INSEG    CODE           ?PR?ACK_CMD_M?CMD
FF6118H   FF6127H   000010H   BYTE   INSEG    CODE           ?PR?ISDIGIT?_?ISDIGIT
FF6128H   FF6135H   00000EH   BYTE   INSEG    CODE           ?PR?STRLEN?_?STRLEN
FF6136H   FF6142H   00000DH   BYTE   INSEG    CODE           ?PR?TIMER3_INIT?SYSTEM
FF6143H   FF614FH   00000DH   BYTE   INSEG    CODE           ?PR?TIMER4_INIT?SYSTEM
FF6150H   FF615BH   00000CH   BYTE   INSEG    CODE           ?PR?DEBUGMSG?MAIN
FF615CH   FF6165H   00000AH   BYTE   INSEG    CODE           ?PR?ACK_CMD_C?CMD
FF6166H   FF616FH   00000AH   BYTE   INSEG    CODE           ?PR?ACK_CMD_T?CMD
FF6170H   FF6173H   000004H   BYTE   UNIT     CONST          ?CO?PRINTF
FF6174H   FF63F8H   000285H   BYTE   UNIT     HCONST         ?C_INITEDATA
FF63F9H   FF6679H   000281H   BYTE   UNIT     HCONST         ?C_INITHDATA
FF667AH   FF6834H   0001BBH   BYTE   UNIT     HCONST         ?HC?MAIN
FF6835H   FF68B4H   000080H   BYTE   UNIT     HCONST         ?HC?SENSOR
FF68B5H   FF68E7H   000033H   BYTE   UNIT     HCONST         ?HC?LCD
FF68E8H   FF6907H   000020H   BYTE   UNIT     HCONST         ?HC?CMD
FF6908H   FF6918H   000011H   BYTE   UNIT     HCONST         ?HC?LCDAPP
FF6919H   FF6920H   000008H   BYTE   UNIT     HCONST         ?HC?MODBUS
FF6921H   FF6926H   000006H   BYTE   UNIT     HCONST         ?HC?MODBUSDEV
FF6927H   FF692CH   000006H   BYTE   UNIT     HCONST         ?HC?MODBUSHOST
FF692DH   FF6931H   000005H   BYTE   UNIT     HCONST         ?HC?MCP4725

* * * * * * * * *   R E M O V E D     S E G M E N T S   * * * * * * * *
   *DEL*:           0000A8H   BYTE   INSEG    CODE           ?PR?DUMPCMD?MAIN
   *DEL*:           000001H   BYTE   INSEG    CODE           ?PR?HNDINPUT?MAIN
   *DEL*:           00003FH   BYTE   INSEG    CODE           ?PR?DELAYMS?MAIN
   *DEL*:           000047H   BYTE   INSEG    CODE           ?PR?DELAY?MAIN
   *DEL*:           000011H   BYTE   INSEG    CODE           ?PR?PUTCHAR?UART
   *DEL*:           00002DH   BYTE   INSEG    CODE           ?PR?CHECKDATALEN?LCD
   *DEL*:           000045H   BYTE   INSEG    CODE           ?PR?ENTERPAGE?LCD
   *DEL*:           000005H   BYTE   INSEG    CODE           ?PR?SWDWORD?LCD
   *DEL*:           00002EH   BYTE   INSEG    CODE           ?PR?POPCHAR?LCD
   *DEL*:           000027H   BYTE   INSEG    CODE           ?PR?GETLCDTIME?LCD
   *DEL*:           00004CH   BYTE   INSEG    CODE           ?PR?SETBKLIGHT?LCD
   *DEL*:           0000B7H   BYTE   INSEG    CODE           ?PR?SENDPARAM?LCDAPP
   *DEL*:           00001DH   BYTE   INSEG    CODE           ?PR?GETINPUTTIME?LCDAPP
   *DEL*:           000020H   BYTE   INSEG    CODE           ?PR?GETRETCODE?LCDAPP
   *DEL*:           0000ABH   BYTE   INSEG    CODE           ?PR?SETCURTIME?LCDAPP
   *DEL*:           00003DH   BYTE   INSEG    CODE           ?PR?SETRUNTIME?LCDAPP
   *DEL*:           000038H   BYTE   INSEG    CODE           ?PR?VALIDTCPFRAME?MODBUS
   *DEL*:           00006DH   BYTE   INSEG    CODE           ?PR?SWENDIAN?MODBUS
   *DEL*:           000023H   BYTE   INSEG    CODE           ?PR?BYTESTODWORD?MODBUS
   *DEL*:           000038H   BYTE   INSEG    CODE           ?PR?BYTESTOFLOAT?MODBUS
   *DEL*:           000038H   BYTE   INSEG    CODE           ?PR?FLOATTOBYTES?MODBUS
   *DEL*:           000023H   BYTE   INSEG    CODE           ?PR?BYTESTOWORD?MODBUS
   *DEL*:           00002BH   BYTE   INSEG    CODE           ?PR?SWENDIANW?MODBUS
   *DEL*:           000051H   BYTE   INSEG    CODE           ?PR?BYTECONVERT?MODBUS
L251 LINKER/LOCATER V4.66.93.0                                                        02/28/2025  09:05:19  PAGE 9


   *DEL*:           0000D2H   BYTE   INSEG    CODE           ?PR?READACK?MODBUSDEV
   *DEL*:           000031H   BYTE   INSEG    CODE           ?PR?PACKAGEDWORDVALUE?MODBUSDEV
   *DEL*:           000072H   BYTE   INSEG    CODE           ?PR?WRITEACK?MODBUSDEV
   *DEL*:           000042H   BYTE   INSEG    CODE           ?PR?PACKAGEFLOATVALUE?MODBUSDEV
   *DEL*:           000002H   BYTE   INSEG    CODE           ?PR?WRITEREGVALUE?MODBUSDEV
   *DEL*:           000029H   BYTE   INSEG    CODE           ?PR?SETREGVALUE?MODBUSDEV
   *DEL*:           000049H   BYTE   INSEG    CODE           ?PR?PACKAGEWORDVALUE?MODBUSDEV
   *DEL*:           000004H   BYTE   INSEG    CODE           ?PR?MODBUSSAVEPARAM?MODBUSDEV
   *DEL*:           000070H   BYTE   INSEG    CODE           ?PR?HNDMODBUSRECV?MODBUSDEV
   *DEL*:           00003DH   BYTE   INSEG    CODE           ?PR?POPREG?MODBUSHOST
   *DEL*:           000025H   BYTE   INSEG    CODE           ?PR?SENDREADPD_INFO?PD_PROBE
   *DEL*:           00002BH   BYTE   INSEG    CODE           ?PR?WRITEPD_INFO?PD_PROBE
   *DEL*:           000025H   BYTE   INSEG    CODE           ?PR?SENDREADPD_DOSERATE?PD_PROBE
   *DEL*:           000025H   BYTE   INSEG    CODE           ?PR?SENDREADPD_VER?PD_PROBE
   *DEL*:           000025H   BYTE   INSEG    CODE           ?PR?SENDREADPD_THR?PD_PROBE
   *DEL*:           000025H   BYTE   INSEG    CODE           ?PR?SENDREADPD_FIX?PD_PROBE
   *DEL*:           000025H   BYTE   INSEG    CODE           ?PR?SENDREADPD_ADDRESS?PD_PROBE
   *DEL*:           00002BH   BYTE   INSEG    CODE           ?PR?WRITEPD_ADDRESS?PD_PROBE
   *DEL*:           000025H   BYTE   INSEG    CODE           ?PR?SENDREADPD_ALARM?PD_PROBE
   *DEL*:           00002BH   BYTE   INSEG    CODE           ?PR?WRITEPD_ALARM?PD_PROBE
   *DEL*:           000143H   BYTE   INSEG    CODE           ?PR?GETHIS?CALCDOSERATE
   *DEL*:           000134H   BYTE   INSEG    CODE           ?PR?RESVCPS?CALCDOSERATE
   *DEL*:           000123H   BYTE   INSEG    CODE           ?PR?USESLPARAM?SENSOR
   *DEL*:           000005H   BYTE   INSEG    CODE           ?PR?GET_LOW_SMOOTH_COUNTER?SENSOR
   *DEL*:           000005H   BYTE   INSEG    CODE           ?PR?GET_LOW_COUNTER?SENSOR
   *DEL*:           00004FH   BYTE   INSEG    CODE           ?PR?CHECKSUM?CMD
   *DEL*:           000001H   BYTE   INSEG    CODE           ?PR?READNH?CMD
   *DEL*:           000004H   BYTE   INSEG    CODE           ?PR?WRITENH?CMD
   *DEL*:           00047EH   BYTE   INSEG    CODE           ?PR?READBATVOL?CMD
   *DEL*:           000047H   BYTE   INSEG    CODE           ?PR?WORDTOSMALL?CMD



OVERLAY MAP OF MODULE:   .\obj\PileCore (ISR)


FUNCTION/MODULE                       EDATA_GROUP
--> CALLED FUNCTION/MODULE            START  STOP
=================================================
UART1_int/uart                        ----- -----

*** NEW ROOT ************************

UART2_int/uart                        ----- -----

*** NEW ROOT ************************

UART3_int/uart                        ----- -----

*** NEW ROOT ************************

UART4_int/uart                        ----- -----

*** NEW ROOT ************************

Timer0_Isr/system                     ----- -----

*** NEW ROOT ************************

Timer1_Isr/system                     ----- -----

*** NEW ROOT ************************

Timer3_Isr/system                     ----- -----

L251 LINKER/LOCATER V4.66.93.0                                                        02/28/2025  09:05:19  PAGE 10


*** NEW ROOT ************************

Timer4_Isr/system                     ----- -----

*** NEW ROOT ************************

?C_C51STARTUP                         ----- -----

*** NEW ROOT ************************

?C_C51STARTUP?3                       ----- -----
  +--> main/main

main/main                             ----- -----
  +--> SysInit/system
  +--> IoInit/main
  +--> delay_ms/main
  +--> Dev_Init/main
  +--> LX_MP3_Init/main
  +--> LedInit/main
  +--> Timer0_Init/system
  +--> Timer1_Init/system
  +--> Timer3_Init/system
  +--> Timer4_Init/system
  +--> UART1_config/uart
  +--> UART2_config/uart
  +--> UART3_config/uart
  +--> UART4_config/uart
  +--> ClearUart1Buf/uart
  +--> ClearUart2Buf/uart
  +--> ClearUart3Buf/uart
  +--> ClearUart4Buf/uart
  +--> ReadParam/main
  +--> SensorInit/Sensor
  +--> InitLcd/main
  +--> ClearCounter/CalcDoseRate
  +--> MCP4725_OutVol/mcp4725
  +--> TimerTask/main
  +--> GetInput/main
  +--> CaptureSensorPluseCounter/Sensor
  +--> Uart1Hnd/uart
  +--> Uart2Hnd/uart
  +--> Uart3Hnd/uart
  +--> Uart4Hnd/uart

SysInit/system                        ----- -----

IoInit/main                           ----- -----

delay_ms/main                         ----- -----

Dev_Init/main                         ----- -----

LX_MP3_Init/main                      ----- -----

LedInit/main                          ----- -----

Timer0_Init/system                    ----- -----

Timer1_Init/system                    ----- -----

Timer3_Init/system                    ----- -----

Timer4_Init/system                    ----- -----

L251 LINKER/LOCATER V4.66.93.0                                                        02/28/2025  09:05:19  PAGE 11


UART1_config/uart                     ----- -----

UART2_config/uart                     ----- -----

UART3_config/uart                     ----- -----

UART4_config/uart                     ----- -----

ClearUart1Buf/uart                    ----- -----
  +--> memset?_/memset

memset?_/memset                       ----- -----

ClearUart2Buf/uart                    ----- -----
  +--> memset?_/memset

ClearUart3Buf/uart                    ----- -----
  +--> memset?_/memset

ClearUart4Buf/uart                    ----- -----
  +--> memset?_/memset

ReadParam/main                        ----- -----
  +--> EEPROM_read/EepRom
  +--> ParamCheck/main
  +--> GeneralParam/main
  +--> DevParamDef/main
  +--> memcpy?_/memcpy
  +--> WriteParam/main

EEPROM_read/EepRom                    ----- -----
  +--> EEPROM_Trig/EepRom
  +--> DisableEEPROM/EepRom

EEPROM_Trig/EepRom                    ----- -----

DisableEEPROM/EepRom                  ----- -----

ParamCheck/main                       ----- -----

GeneralParam/main                     ----- -----
  +--> memset?_/memset
  +--> SPRINTF/SPRINTF
  +--> WriteParam/main

SPRINTF/SPRINTF                       08A0H 08C7H
  +--> OUT/SPRINTF

OUT/SPRINTF                           ----- -----
  +--> PUTCH/SPRINTF

PUTCH/SPRINTF                         ----- -----

WriteParam/main                       ----- -----
  +--> EEPROM_SectorErase/EepRom
  +--> ParamCheck/main
  +--> EEPROM_write/EepRom
  +--> Error/main

EEPROM_SectorErase/EepRom             ----- -----
  +--> EEPROM_Trig/EepRom
  +--> DisableEEPROM/EepRom

EEPROM_write/EepRom                   ----- -----
  +--> EEPROM_Trig/EepRom
L251 LINKER/LOCATER V4.66.93.0                                                        02/28/2025  09:05:19  PAGE 12


  +--> DisableEEPROM/EepRom

Error/main                            ----- -----
  +--> delay_ms/main

DevParamDef/main                      ----- -----
  +--> memset?_/memset
  +--> SPRINTF/SPRINTF
  +--> WriteParam/main

memcpy?_/memcpy                       ----- -----

SensorInit/Sensor                     ----- -----
  +--> InitArr/CalcDoseRate
  +--> memset?_/memset
  +--> RefreshParam/Sensor
  +--> SensorMeasureBegin/Sensor

InitArr/CalcDoseRate                  ----- -----
  +--> memset?_/memset

RefreshParam/Sensor                   ----- -----
  +--> UseHighParam/Sensor
  +--> UseLowParam/Sensor

UseHighParam/Sensor                   ----- -----

UseLowParam/Sensor                    ----- -----

SensorMeasureBegin/Sensor             ----- -----
  +--> GetCounter/system
  +--> GetHightCounter/system
  +--> GetNaICounter/system

GetCounter/system                     ----- -----

GetHightCounter/system                ----- -----

GetNaICounter/system                  ----- -----

InitLcd/main                          ----- -----
  +--> memset?_/memset
  +--> ShowLightON/Lcd
  +--> delay_ms/main
  +--> HideBorder/LcdApp
  +--> SendCps/LcdApp
  +--> ShowCps/LcdApp
  +--> Cps_Check/LcdApp
  +--> UpdataUI/main
  +--> ShowIcon/Lcd
  +--> HideControl/Lcd
  +--> HideModule/Lcd

ShowLightON/Lcd                       ----- -----
  +--> LcdCmd/Lcd

LcdCmd/Lcd                            ----- -----
  +--> memset?_/memset
  +--> SwWord/Lcd
  +--> memcpy?_/memcpy
  +--> DebugMsg/main
  +--> Uart1Send/uart

SwWord/Lcd                            ----- -----

L251 LINKER/LOCATER V4.66.93.0                                                        02/28/2025  09:05:19  PAGE 13


DebugMsg/main                         ----- -----
  +--> strlen?_/STRLEN

strlen?_/STRLEN                       ----- -----

Uart1Send/uart                        ----- -----

HideBorder/LcdApp                     ----- -----
  +--> ShowIcon/Lcd

ShowIcon/Lcd                          ----- -----
  +--> LcdCmd/Lcd

SendCps/LcdApp                        ----- -----
  +--> SwWord/Lcd
  +--> LcdCmd/Lcd

ShowCps/LcdApp                        ----- -----
  +--> ShowModule/Lcd
  +--> SetTextIntegerNum/Lcd
  +--> HideModule/Lcd

ShowModule/Lcd                        ----- -----
  +--> SwWord/Lcd
  +--> LcdCmd/Lcd

SetTextIntegerNum/Lcd                 ----- -----
  +--> LcdCmd/Lcd

HideModule/Lcd                        ----- -----
  +--> LcdCmd/Lcd

Cps_Check/LcdApp                      ----- -----
  +--> ShowModule/Lcd
  +--> ShowControl/Lcd
  +--> HideModule/Lcd
  +--> HideControl/Lcd

ShowControl/Lcd                       ----- -----
  +--> LcdCmd/Lcd

HideControl/Lcd                       ----- -----
  +--> LcdCmd/Lcd

UpdataUI/main                         ----- -----
  +--> ShowIcon/Lcd
  +--> delay_ms/main
  +--> StatusColor/LcdApp

StatusColor/LcdApp                    ----- -----
  +--> delay_ms/main
  +--> SwWord/Lcd
  +--> SetTextColor/Lcd

SetTextColor/Lcd                      ----- -----
  +--> LcdCmd/Lcd

ClearCounter/CalcDoseRate             ----- -----
  +--> memset?_/memset

MCP4725_OutVol/mcp4725                ----- -----
  +--> memcpy?_/memcpy
  +--> atoi?_/ATOI
  +--> ?C?ULIDIV/?C?ULDIV
  +--> delay_us/i2c
L251 LINKER/LOCATER V4.66.93.0                                                        02/28/2025  09:05:19  PAGE 14



atoi?_/ATOI                           ----- -----
  +--> isspace?_/ISSPACE
  +--> isdigit?_/ISDIGIT

isspace?_/ISSPACE                     ----- -----

isdigit?_/ISDIGIT                     ----- -----

?C?ULIDIV/?C?ULDIV                    ----- -----

delay_us/i2c                          ----- -----

TimerTask/main                        ----- -----
  +--> RunLed/main
  +--> IoCtlTask/main
  +--> ProbeSelect/main
  +--> Task1s/main

RunLed/main                           ----- -----

IoCtlTask/main                        ----- -----
  +--> OutFlash/main
  +--> OutCtl/main

OutFlash/main                         ----- -----
  +--> OutCtl/main

OutCtl/main                           ----- -----

ProbeSelect/main                      ----- -----
  +--> DevParamDef/main
  +--> SendCps/LcdApp
  +--> MCP4725_OutVol/mcp4725

Task1s/main                           ----- -----
  +--> WritePD_Thr/PD_Probe
  +--> WritePD_fix/PD_Probe
  +--> SendReadPD/PD_Probe
  +--> DevRun/main
  +--> ETH_Init/main

WritePD_Thr/PD_Probe                  ----- -----
  +--> SyncModBusDev/main
  +--> HostSendCmd/ModBusHost

SyncModBusDev/main                    ----- -----
  +--> memset?_/memset

HostSendCmd/ModBusHost                ----- -----
  +--> memset?_/memset
  +--> RegSw/ModBus
  +--> memcpy?_/memcpy
  +--> CRC16Calc/ModBus
  +--> SendBuffer/ModBusHost

RegSw/ModBus                          ----- -----

CRC16Calc/ModBus                      ----- -----

SendBuffer/ModBusHost                 ----- -----
  +--> SendTcpFrame/ModBusHost
  +--> Uart4Send/uart

SendTcpFrame/ModBusHost               ----- -----
L251 LINKER/LOCATER V4.66.93.0                                                        02/28/2025  09:05:19  PAGE 15


  +--> memcpy?_/memcpy

Uart4Send/uart                        ----- -----

WritePD_fix/PD_Probe                  ----- -----
  +--> SyncModBusDev/main
  +--> HostSendCmd/ModBusHost

SendReadPD/PD_Probe                   ----- -----
  +--> HostSendCmd/ModBusHost

DevRun/main                           ----- -----
  +--> ShowCps/LcdApp
  +--> GetDoseRate/main
  +--> CheckDoseRate/main
  +--> ShowDoseRate/LcdApp
  +--> ShowDevInfo/LcdApp
  +--> CheckAlarm/main

GetDoseRate/main                      ----- -----
  +--> SPRINTF/SPRINTF
  +--> Char2Unicode/main
  +--> memset?_/memset
  +--> LcdCmd/Lcd

Char2Unicode/main                     ----- -----

CheckDoseRate/main                    ----- -----
  +--> ShowVal/Lcd
  +--> ShowSpin/Lcd

ShowVal/Lcd                           ----- -----
  +--> SwWord/Lcd
  +--> LcdCmd/Lcd

ShowSpin/Lcd                          ----- -----
  +--> SwWord/Lcd
  +--> LcdCmd/Lcd

ShowDoseRate/LcdApp                   ----- -----
  +--> memcpy?_/memcpy
  +--> LcdCmd/Lcd

ShowDevInfo/LcdApp                    ----- -----
  +--> memset?_/memset
  +--> SPRINTF/SPRINTF
  +--> LcdCmd/Lcd

CheckAlarm/main                       ----- -----
  +--> StatusColor/LcdApp
  +--> AbnorAlarm/main

AbnorAlarm/main                       ----- -----
  +--> ShowIcon/Lcd
  +--> ShowBorderY/LcdApp
  +--> StartMP3/main
  +--> StopMP3/main
  +--> ShowBorderR/LcdApp
  +--> StopAlmLight/main

ShowBorderY/LcdApp                    ----- -----
  +--> ShowIcon/Lcd

StartMP3/main                         ----- -----
  +--> delay_ms/main
L251 LINKER/LOCATER V4.66.93.0                                                        02/28/2025  09:05:19  PAGE 16



StopMP3/main                          ----- -----
  +--> delay_ms/main

ShowBorderR/LcdApp                    ----- -----
  +--> ShowIcon/Lcd

StopAlmLight/main                     ----- -----
  +--> HideBorder/LcdApp
  +--> StopMP3/main
  +--> StartMP3/main

ETH_Init/main                         ----- -----
  +--> delay_ms/main
  +--> Uart3Send/uart

Uart3Send/uart                        ----- -----

GetInput/main                         ----- -----
  +--> delay_ms/main
  +--> PowerOff/main
  +--> AlmConfirm/main

PowerOff/main                         ----- -----
  +--> ShowLight/Lcd

ShowLight/Lcd                         ----- -----
  +--> SwWord/Lcd
  +--> LcdCmd/Lcd

AlmConfirm/main                       ----- -----
  +--> StopMP3/main
  +--> StartMP3/main
  +--> CheckDevInfo/main

CheckDevInfo/main                     ----- -----
  +--> ShowModule/Lcd
  +--> HideModule/Lcd

CaptureSensorPluseCounter/Sensor      ----- -----
  +--> GetCounter/system
  +--> GetHightCounter/system
  +--> SmothCpsCalcRate/CalcDoseRate
  +--> ClearCounter/CalcDoseRate
  +--> DrFix/Sensor
  +--> GetNaICounter/system
  +--> CalcAlarmState/Sensor
  +--> Set_LP_DoseRateUnit/Sensor

SmothCpsCalcRate/CalcDoseRate         ----- -----
  +--> CpsFilter/CalcDoseRate
  +--> BackPH/CalcDoseRate
  +--> CounterPH/CalcDoseRate
  +--> UseLowParam/Sensor
  +--> UseHighParam/Sensor
  +--> CpsToUsv_h/CalcDoseRate
  +--> GetNaIDoseRate/CalcDoseRate

CpsFilter/CalcDoseRate                ----- -----
  +--> ClearCounter/CalcDoseRate
  +--> AddCounter/CalcDoseRate

AddCounter/CalcDoseRate               ----- -----
  +--> PushCps/CalcDoseRate

L251 LINKER/LOCATER V4.66.93.0                                                        02/28/2025  09:05:19  PAGE 17


PushCps/CalcDoseRate                  ----- -----

BackPH/CalcDoseRate                   ----- -----
  +--> CounterPH/CalcDoseRate

CounterPH/CalcDoseRate                ----- -----

CpsToUsv_h/CalcDoseRate               ----- -----

GetNaIDoseRate/CalcDoseRate           ----- -----

DrFix/Sensor                          ----- -----

CalcAlarmState/Sensor                 ----- -----

Set_LP_DoseRateUnit/Sensor            ----- -----

Uart1Hnd/uart                         ----- -----
  +--> memcpy?_/memcpy
  +--> ClearUart1Buf/uart
  +--> HndLcdData/Lcd

HndLcdData/Lcd                        ----- -----
  +--> HndLcdFrame/Lcd
  +--> ValidLcdFrame/Lcd
  +--> ClearRevBuf/Lcd

HndLcdFrame/Lcd                       ----- -----
  +--> ReadReg/LcdApp
  +--> WriteReg/LcdApp

ReadReg/LcdApp                        ----- -----
  +--> SwWord/Lcd
  +--> DebugInt/main
  +--> PopWord/Lcd
  +--> Cps_Check/LcdApp

DebugInt/main                         ----- -----
  +--> memset?_/memset
  +--> SPRINTF/SPRINTF
  +--> DebugMsg/main

PopWord/Lcd                           ----- -----
  +--> memcpy?_/memcpy
  +--> SwWord/Lcd

WriteReg/LcdApp                       ----- -----

ValidLcdFrame/Lcd                     ----- -----
  +--> SwWord/Lcd

ClearRevBuf/Lcd                       ----- -----
  +--> memset?_/memset

Uart2Hnd/uart                         ----- -----
  +--> DataPro/cmd
  +--> ClearUart2Buf/uart

DataPro/cmd                           ----- -----
  +--> memcpy?_/memcpy
  +--> SPRINTF/SPRINTF
  +--> memcmp?_/memcmp
  +--> ACK_CMD_C/cmd
  +--> ACK_CMD_V/cmd
  +--> ACK_CMD_P/cmd
L251 LINKER/LOCATER V4.66.93.0                                                        02/28/2025  09:05:19  PAGE 18


  +--> ACK_CMD_H/cmd
  +--> ACK_CMD_B/cmd
  +--> ACK_CMD_W/cmd
  +--> ACK_CMD_F/cmd
  +--> ACK_CMD_R/cmd
  +--> ACK_CMD_T/cmd
  +--> ACK_CMD_Q/cmd
  +--> ACK_CMD_M/cmd
  +--> ACK_CMD_J/cmd
  +--> ACK_CMD_N/cmd
  +--> ReadCS/cmd
  +--> SetCS/cmd
  +--> AlarmConfirm/cmd
  +--> ACK_CMD_TIME/cmd
  +--> ReadFix/cmd
  +--> WriteFix/cmd
  +--> ACK_CMD_RINFO/cmd
  +--> ACK_CMD_WINFO/cmd

memcmp?_/memcmp                       ----- -----

ACK_CMD_C/cmd                         ----- -----
  +--> SendData/cmd

SendData/cmd                          ----- -----
  +--> memcpy?_/memcpy
  +--> SPRINTF/SPRINTF
  +--> Uart2Send/uart

Uart2Send/uart                        ----- -----

ACK_CMD_V/cmd                         ----- -----
  +--> FloatToSmall/cmd
  +--> DwordToSmall/cmd
  +--> SendData/cmd

FloatToSmall/cmd                      ----- -----
  +--> memcpy?_/memcpy

DwordToSmall/cmd                      ----- -----
  +--> memcpy?_/memcpy

ACK_CMD_P/cmd                         ----- -----
  +--> SPRINTF/SPRINTF
  +--> SendData/cmd

ACK_CMD_H/cmd                         ----- -----
  +--> SendData/cmd
  +--> SaveParam/main

SaveParam/main                        ----- -----
  +--> WriteParam/main

ACK_CMD_B/cmd                         ----- -----
  +--> memcpy?_/memcpy
  +--> FloatToSmall/cmd
  +--> SendData/cmd
  +--> SaveParam/main

ACK_CMD_W/cmd                         ----- -----
  +--> memcpy?_/memcpy
  +--> FloatToSmall/cmd
  +--> DwordToSmall/cmd
  +--> SPRINTF/SPRINTF
  +--> MCP4725_OutVol/mcp4725
L251 LINKER/LOCATER V4.66.93.0                                                        02/28/2025  09:05:19  PAGE 19


  +--> SendData/cmd
  +--> SaveParam/main

ACK_CMD_F/cmd                         ----- -----
  +--> FloatToSmall/cmd
  +--> SendData/cmd

ACK_CMD_R/cmd                         ----- -----
  +--> memset?_/memset
  +--> FloatToSmall/cmd
  +--> memcpy?_/memcpy
  +--> atoi?_/ATOI
  +--> DwordToSmall/cmd
  +--> SendData/cmd

ACK_CMD_T/cmd                         ----- -----
  +--> SendData/cmd

ACK_CMD_Q/cmd                         ----- -----
  +--> SendData/cmd

ACK_CMD_M/cmd                         ----- -----
  +--> SendData/cmd

ACK_CMD_J/cmd                         ----- -----
  +--> FloatToSmall/cmd
  +--> SendData/cmd

ACK_CMD_N/cmd                         ----- -----
  +--> memcpy?_/memcpy
  +--> FloatToSmall/cmd
  +--> SendData/cmd
  +--> SaveParam/main
  +--> RefreshParam/Sensor

ReadCS/cmd                            ----- -----
  +--> FloatToSmall/cmd
  +--> SendData/cmd

SetCS/cmd                             ----- -----
  +--> memcpy?_/memcpy
  +--> FloatToSmall/cmd
  +--> SendData/cmd
  +--> SaveParam/main

AlarmConfirm/cmd                      ----- -----
  +--> SendData/cmd

ACK_CMD_TIME/cmd                      ----- -----
  +--> SetLcdTime/Lcd
  +--> SendData/cmd

SetLcdTime/Lcd                        ----- -----
  +--> memcpy?_/memcpy
  +--> LcdCmd/Lcd

ReadFix/cmd                           ----- -----
  +--> FloatToSmall/cmd
  +--> SendData/cmd

WriteFix/cmd                          ----- -----
  +--> memcpy?_/memcpy
  +--> FloatToSmall/cmd
  +--> SendData/cmd
  +--> SaveParam/main
L251 LINKER/LOCATER V4.66.93.0                                                        02/28/2025  09:05:19  PAGE 20



ACK_CMD_RINFO/cmd                     ----- -----
  +--> memcpy?_/memcpy
  +--> SendData/cmd

ACK_CMD_WINFO/cmd                     ----- -----
  +--> memcpy?_/memcpy
  +--> SendData/cmd
  +--> SaveParam/main

Uart3Hnd/uart                         ----- -----
  +--> ClearUart3Buf/uart

Uart4Hnd/uart                         ----- -----
  +--> PDProbe_Ack/PD_Probe
  +--> ClearUart4Buf/uart

PDProbe_Ack/PD_Probe                  ----- -----
  +--> ValidRtuFrame/ModBus
  +--> memset?_/memset
  +--> memcpy?_/memcpy
  +--> ReadPD_Ack/PD_Probe
  +--> Calc_PD_AlarmState/PD_Probe
  +--> Set_PD_DoseRateUnit/PD_Probe
  +--> WritePD_Ack/PD_Probe

ValidRtuFrame/ModBus                  ----- -----
  +--> CRC16Calc/ModBus

ReadPD_Ack/PD_Probe                   ----- -----
  +--> memcpy?_/memcpy
  +--> ModBusPDSave/PD_Probe

ModBusPDSave/PD_Probe                 ----- -----
  +--> WriteParam/main

Calc_PD_AlarmState/PD_Probe           ----- -----

Set_PD_DoseRateUnit/PD_Probe          ----- -----

WritePD_Ack/PD_Probe                  ----- -----

*** NEW ROOT ************************

?C_C51STARTUP?2                       ----- -----



PUBLIC SYMBOLS OF MODULE:  .\obj\PileCore (ISR)


      VALUE       CLASS    TYPE      PUBLIC SYMBOL NAME
      =================================================
      00FF0BA2H   CODE     ---       ?C?BMOVENP
      00FF0BA0H   CODE     ---       ?C?BMOVENP8
      00FF039AH   CODE     NEAR LAB  ?C?CASTF
      000000FFH   NUMBER   ---       ?C?CODESEG
      00FF0367H   CODE     NEAR LAB  ?C?FCASTC
      00FF0362H   CODE     NEAR LAB  ?C?FCASTI
      00FF035DH   CODE     NEAR LAB  ?C?FCASTL
      00FF09B0H   CODE     ---       ?C?FP2SERIES
      00FF013EH   CODE     ---       ?C?FPADD
      00FF0319H   CODE     ---       ?C?FPCMP
      00FF0317H   CODE     ---       ?C?FPCMP3
      00FF09EBH   CODE     ---       ?C?FPCONVERT
L251 LINKER/LOCATER V4.66.93.0                                                        02/28/2025  09:05:19  PAGE 21


      00FF0296H   CODE     ---       ?C?FPDIV
      00FF0523H   CODE     ---       ?C?FPGETOPN2
      00FF01F6H   CODE     ---       ?C?FPMUL
      00FF0560H   CODE     ---       ?C?FPNANRESULT
      00FF0568H   CODE     ---       ?C?FPOVERFLOW
      00FF053CH   CODE     ---       ?C?FPRESULT
      00FF0552H   CODE     ---       ?C?FPRESULT2
      00FF0AA3H   CODE     ---       ?C?FPROUND
      00FF09B9H   CODE     ---       ?C?FPSERIES
      00FF013BH   CODE     ---       ?C?FPSUB
      00FF0565H   CODE     ---       ?C?FPUNDERFLOW
      00FF0B16H   CODE     ---       ?C?FTNPWR
      00FF4CCFH   CODE     ---       ?C?INITEDATA
      00FF63F7H   HCONST   WORD      ?C?INITEDATA_END
      00FF4CF8H   CODE     ---       ?C?INITHDATA
      00FF6678H   HCONST   WORD      ?C?INITHDATA_END
      00FF05A1H   CODE     ---       ?C?PRNFMT
      00FF0000H   CODE     ---       ?C?STARTUP
      00FF0B4FH   CODE     NEAR LAB  ?C?ULDIV
      00FF0B4DH   CODE     NEAR LAB  ?C?ULIDIV
      00000001H   NUMBER   ---       ?C?XDATASEG
      00FF0000H   CODE     ---       ?C_STARTUP
      00000A43H   EDATA    BYTE      ?EEPROM_read?BYTE
      0000097CH   EDATA    BYTE      ?EEPROM_write?BYTE
      000009B2H   EDATA    BYTE      ?HostSendCmd?BYTE
      000009C3H   EDATA    BYTE      ?SmothCpsCalcRate?BYTE
      000008C8H   EDATA    ---       ?sprintf?BYTE
      00FF35ADH   CODE     ---       AbnorAlarm
      00FF2BA5H   CODE     ---       ACK_CMD_B
      00FF615CH   CODE     ---       ACK_CMD_C
      00FF36B7H   CODE     ---       ACK_CMD_F
      00FF603EH   CODE     ---       ACK_CMD_H
      00FF4A6BH   CODE     ---       ACK_CMD_J
      00FF6107H   CODE     ---       ACK_CMD_M
      00FF4503H   CODE     ---       ACK_CMD_N
      00FF2CD4H   CODE     ---       ACK_CMD_P
      00FF5B4AH   CODE     ---       ACK_CMD_Q
      00FF1C9FH   CODE     ---       ACK_CMD_R
      00FF535BH   CODE     ---       ACK_CMD_RINFO
      00FF6166H   CODE     ---       ACK_CMD_T
      00FF60F6H   CODE     ---       ACK_CMD_TIME
      00FF2F25H   CODE     ---       ACK_CMD_V
      00FF178BH   CODE     ---       ACK_CMD_W
      00FF4D98H   CODE     ---       ACK_CMD_WINFO
*SFR* 000000BCH   DATA     BYTE      ADC_CONTR
*SFR* 000000DEH   DATA     BYTE      ADCCFG
      00FF0003H   CODE     ---       AddCounter
      00FF5B77H   CODE     ---       AlarmConfirm
      000004A9H   EDATA    BYTE      AlarmConfirm_flag
      00FF496CH   CODE     ---       AlmConfirm
      00FF49ECH   CODE     ---       atoi?_
*SFR* 000000EFH   DATA     BYTE      AUXINTIF
*SFR* 0000008EH   DATA     BYTE      AUXR
*SFR* 00000097H   DATA     BYTE      AUXR2
      00000020H.0 BIT      BIT       B_TX1_Busy
      00000020H.1 BIT      BIT       B_TX2_Busy
      00000020H.2 BIT      BIT       B_TX3_Busy
      00000020H.3 BIT      BIT       B_TX4_Busy
      00000353H   EDATA    ---       BackAv
      00000352H   EDATA    BYTE      BackCnt
      00FF3046H   CODE     ---       BackPH
      00000470H   EDATA    BYTE      BackTimer
*DEL*:00000000H   CODE     ---       ByteConvert
*DEL*:00000000H   CODE     ---       BytesToDWord
*DEL*:00000000H   CODE     ---       BytesToFloat
L251 LINKER/LOCATER V4.66.93.0                                                        02/28/2025  09:05:19  PAGE 22


*DEL*:00000000H   CODE     ---       BytesToWord
      00FF37C1H   CODE     ---       Calc_PD_AlarmState
      00FF1EFDH   CODE     ---       CalcAlarmState
*SFR* 000000F1H   DATA     BYTE      CANICR
      00FF2113H   CODE     ---       CaptureSensorPluseCounter
      000004ACH   EDATA    ---       ChannelError
      00FF4E65H   CODE     ---       Char2Unicode
      00FF4316H   CODE     ---       CheckAlarm
*DEL*:00000000H   CODE     ---       CheckDataLen
      00FF5ABEH   CODE     ---       CheckDevInfo
      00FF3C66H   CODE     ---       CheckDoseRate
*DEL*:00000000H   CODE     ---       CheckSum
      00FF0026H   CODE     ---       ClearCounter
      00FF5ED9H   CODE     ---       ClearRevBuf
      00FF6067H   CODE     ---       ClearUart1Buf
      00FF6079H   CODE     ---       ClearUart2Buf
      00FF608BH   CODE     ---       ClearUart3Buf
      00FF609DH   CODE     ---       ClearUart4Buf
*SFR* 000000C1H.4 DATA     BIT       CLR_WDT
*SFR* 000000E6H   DATA     BYTE      CMPCR1
*SFR* 000000E7H   DATA     BYTE      CMPCR2
      00FF349CH   CODE     ---       CounterPH
      00FF5D54H   CODE     ---       Cps_Check
      00000380H   EDATA    ---       CpsArr
      00FF1A3CH   CODE     ---       CpsFilter
      00FF43BCH   CODE     ---       CpsToUsv_h
      00FF4047H   CODE     ---       CRC16Calc
      0000001FH   EDATA    BYTE      DataIndex
      00FF1008H   CODE     ---       DataPro
      00FF5917H   CODE     ---       DebugInt
      00FF6150H   CODE     ---       DebugMsg
*DEL*:00000000H   CODE     ---       Delay
      00FF59C2H   CODE     ---       delay_ms
      00FF5F29H   CODE     ---       delay_us
*DEL*:00000000H   CODE     ---       Delayms
      00FF4EC8H   CODE     ---       Dev_Init
      00010916H   XDATA    ---       DevInfo
      000004BAH   EDATA    BYTE      DevInfo_ShowCnt
      000004B7H   EDATA    BYTE      DevInfo_Showflag
      00FF0BC5H   CODE     ---       DevParamDef
      00010108H   XDATA    ---       DevReadAck
      00FF55B8H   CODE     ---       DevRun
      000102E5H   XDATA    ---       DevWriteAck
      00FF5FFCH   CODE     ---       DisableEEPROM
      00000B69H   EDATA    BYTE      DoseRateAlarm
      00FF24C4H   CODE     ---       DrFix
*DEL*:00000000H   CODE     ---       DumpCmd
      00FF504AH   CODE     ---       DwordToSmall
*SFR* 000000A8H.7 DATA     BIT       EA
*SFR* 000000BAH.7 DATA     BIT       EAXFR
      00FF4D2CH   CODE     ---       EEPROM_read
      00FF5B1DH   CODE     ---       EEPROM_SectorErase
      00FF5F5BH   CODE     ---       EEPROM_Trig
      00FF3163H   CODE     ---       EEPROM_write
*DEL*:00000000H   CODE     ---       EnterPage
      00FF5F8BH   CODE     ---       Error
*SFR* 000000A8H.4 DATA     BIT       ES
*SFR* 000000A8H.1 DATA     BIT       ET0
*SFR* 000000A8H.3 DATA     BIT       ET1
*SFR* 000000AFH.2 DATA     BIT       ET2
      00FF22FAH   CODE     ---       ETH_Init
      000004A8H   EDATA    BYTE      Eth_Initflag
      000004AAH   EDATA    WORD      Eth_InitTim
      00FF0430H   CODE     ---       exp?_
*SFR* 000000D0H.5 DATA     BIT       F0
L251 LINKER/LOCATER V4.66.93.0                                                        02/28/2025  09:05:19  PAGE 23


*DEL*:00000000H   CODE     ---       FloatToBytes
      00FF4FEBH   CODE     ---       FloatToSmall
      000004BBH   EDATA    ---       g_Output
      0000049BH   EDATA    ---       g_OutStatus
      00000857H   EDATA    BYTE      GDoseSeg
      00FF50A9H   CODE     ---       GeneralParam
*DEL*:00000000H   CODE     ---       Get_Low_Counter
*DEL*:00000000H   CODE     ---       Get_Low_Smooth_Counter
      00FF5309H   CODE     ---       GetCounter
      00FF2E01H   CODE     ---       GetDoseRate
      00FF52B7H   CODE     ---       GetHightCounter
*DEL*:00000000H   CODE     ---       GetHis
      00FF53F9H   CODE     ---       GetInput
*DEL*:00000000H   CODE     ---       GetInputTime
*DEL*:00000000H   CODE     ---       GetLcdTime
      00FF5525H   CODE     ---       GetNaICounter
      00FF48E9H   CODE     ---       GetNaIDoseRate
*DEL*:00000000H   CODE     ---       GetRetCode
      0000059AH   EDATA    ---       gs_CMD
      00FF5CC1H   CODE     ---       HideBorder
      00FF5DE0H   CODE     ---       HideControl
      00FF5C9BH   CODE     ---       HideModule
      0000097BH   EDATA    BYTE      HightOverCnt4
      00000B6AH   EDATA    BYTE      HisAlarm
*DEL*:00000000H   CODE     ---       HndInput
      00FF5FB9H   CODE     ---       HndLcdData
      00FF5600H   CODE     ---       HndLcdFrame
*DEL*:00000000H   CODE     ---       HndModBusRecv
      00000BBFH   EDATA    WORD      HostBufIndex
      00FF2940H   CODE     ---       HostSendCmd
      000102F5H   XDATA    ---       HostSendFrame
*SFR* 000000F6H   DATA     BYTE      IAP_ADDRE
*SFR* 000000C3H   DATA     BYTE      IAP_ADDRH
*SFR* 000000C4H   DATA     BYTE      IAP_ADDRL
*SFR* 000000C5H   DATA     BYTE      IAP_CMD
*SFR* 000000C7H   DATA     BYTE      IAP_CONTR
*SFR* 000000C2H   DATA     BYTE      IAP_DATA
*SFR* 000000F5H   DATA     BYTE      IAP_TPS
*SFR* 000000C6H   DATA     BYTE      IAP_TRIG
      00000969H   EDATA    WORD      IDLCnt
*SFR* 000000A8H   DATA     BYTE      IE
*SFR* 000000AFH   DATA     BYTE      IE2
      00FF5161H   CODE     ---       InitArr
      00FF46BBH   CODE     ---       InitLcd
      000004C8H   EDATA    BYTE      Input_Status
*SFR* 0000008FH   DATA     BYTE      INTCLKO
      00FF5265H   CODE     ---       IoCtlTask
      00FF571CH   CODE     ---       IoInit
*SFR* 000000B8H   DATA     BYTE      IP
*SFR* 000000B5H   DATA     BYTE      IP2
*SFR* 000000B6H   DATA     BYTE      IP2H
*SFR* 000000DFH   DATA     BYTE      IP3
*SFR* 000000EEH   DATA     BYTE      IP3H
*SFR* 000000B7H   DATA     BYTE      IPH
*SFR* 0000009DH   DATA     BYTE      IRCBAND
      00FF6118H   CODE     ---       isdigit?_
      00FF6053H   CODE     ---       isspace?_
      00FF4101H   CODE     ---       LcdCmd
      0000001EH   EDATA    BYTE      LcdFrameloc
      00FF000EH   CODE     ---       LedInit
*SFR* 000000F9H   DATA     BYTE      LINICR
      00000868H   EDATA    DWORD     Low_CPS
      0000096BH   EDATA    BYTE      LowOverCnt1
      0000096CH   EDATA    BYTE      LowOverCnt3
      00FF5E44H   CODE     ---       LX_MP3_Init
L251 LINKER/LOCATER V4.66.93.0                                                        02/28/2025  09:05:19  PAGE 24


      00FF3EC1H   CODE     ---       main
      00000BC1H   EDATA    ---       MbId
      00FF143AH   CODE     ---       MCP4725_OutVol
      00FF5AEEH   CODE     ---       memcmp?_
      00FF5D0BH   CODE     ---       memcpy?_
      00FF5F0FH   CODE     ---       memset?_
      0001020DH   XDATA    ---       ModBusPD_Param
      00FF338BH   CODE     ---       ModBusPDSave
*DEL*:00000000H   CODE     ---       ModBusSaveParam
      000004B8H   EDATA    BYTE      MP3_StopFlag
      000004BFH   EDATA    FLOAT     My_Doserate
      000004C4H   EDATA    FLOAT     My_PDDoserate
      00000B6BH   EDATA    BYTE      NeedGetRet
      00FF6835H   HCONST   ---       NhDef
      00FF4749H   CODE     ---       OutCtl
      00FF4F29H   CODE     ---       OutFlash
*SFR* 00000080H   DATA     BYTE      P0
*SFR* 00000094H   DATA     BYTE      P0M0
*SFR* 00000093H   DATA     BYTE      P0M1
*SFR* 00000090H   DATA     BYTE      P1
*SFR* 00000092H   DATA     BYTE      P1M0
*SFR* 00000091H   DATA     BYTE      P1M1
*SFR* 000000A0H   DATA     BYTE      P2
      00000C2DH   EDATA    BYTE      P2DIR
*SFR* 00000096H   DATA     BYTE      P2M0
*SFR* 00000095H   DATA     BYTE      P2M1
*SFR* 000000B0H   DATA     BYTE      P3
*SFR* 000000B2H   DATA     BYTE      P3M0
*SFR* 000000B1H   DATA     BYTE      P3M1
*SFR* 000000C0H   DATA     BYTE      P4
*SFR* 000000B4H   DATA     BYTE      P4M0
*SFR* 000000B3H   DATA     BYTE      P4M1
*SFR* 000000C8H   DATA     BYTE      P5
*SFR* 000000CAH   DATA     BYTE      P5M0
*SFR* 000000C9H   DATA     BYTE      P5M1
*SFR* 000000E8H   DATA     BYTE      P6
*SFR* 000000CCH   DATA     BYTE      P6M0
*SFR* 000000CBH   DATA     BYTE      P6M1
*SFR* 000000F8H   DATA     BYTE      P7
*SFR* 000000E2H   DATA     BYTE      P7M0
*SFR* 000000E1H   DATA     BYTE      P7M1
*SFR* 000000A2H   DATA     BYTE      P_SW1
*SFR* 000000BAH   DATA     BYTE      P_SW2
*SFR* 000000BBH   DATA     BYTE      P_SW3
*DEL*:00000000H   CODE     ---       PackageDWordValue
*DEL*:00000000H   CODE     ---       PackageFloatValue
*DEL*:00000000H   CODE     ---       PackageWordValue
      00000853H   EDATA    FLOAT     parama
      00000858H   EDATA    FLOAT     paramb
      0000085CH   EDATA    FLOAT     paramc
      00FF53ADH   CODE     ---       ParamCheck
      00000860H   EDATA    FLOAT     paramd
*SFR* 00000087H   DATA     BYTE      PCON
      00FF4AE7H   CODE     ---       PDProbe_Ack
      0000096FH   EDATA    DWORD     Pluse1Cnt
      00000973H   EDATA    DWORD     Pluse3Cnt
      00000977H   EDATA    DWORD     Pluse4Cnt
*DEL*:00000000H   CODE     ---       PopChar
*DEL*:00000000H   CODE     ---       PopReg
      00FF5210H   CODE     ---       PopWord
      00FF5FA2H   CODE     ---       PowerOff
      00010502H   XDATA    ---       ProbeRegAddr
      00FF4863H   CODE     ---       ProbeSelect
      000004C3H   EDATA    BYTE      ProbeSwitch
      000004B9H   EDATA    BYTE      ProbeSwitch_State
L251 LINKER/LOCATER V4.66.93.0                                                        02/28/2025  09:05:19  PAGE 25


*SFR* 000000B8H.4 DATA     BIT       PS
*SFR* 000000B5H.0 DATA     BIT       PS2
*SFR* 000000B6H.0 DATA     BIT       PS2H
*SFR* 000000DFH.0 DATA     BIT       PS3
*SFR* 000000EEH.0 DATA     BIT       PS3H
*SFR* 000000DFH.1 DATA     BIT       PS4
*SFR* 000000EEH.1 DATA     BIT       PS4H
*SFR* 000000B7H.4 DATA     BIT       PSH
*SFR* 000000D0H   DATA     BYTE      PSW
*SFR* 000000B8H.1 DATA     BIT       PT0
*SFR* 000000B7H.1 DATA     BIT       PT0H
      00FF462CH   CODE     ---       PushCps
*DEL*:00000000H   CODE     ---       putchar
*DEL*:00000000H   CODE     ---       ReadAck
      000103FDH   XDATA    ---       ReadAckFrame
*DEL*:00000000H   CODE     ---       ReadBatVol
      00FF5C74H   CODE     ---       ReadCS
      00FF27E0H   CODE     ---       ReadFix
*DEL*:00000000H   CODE     ---       ReadNh
      00FF51BBH   CODE     ---       ReadParam
      00FF41B6H   CODE     ---       ReadPD_Ack
      00FF556FH   CODE     ---       ReadReg
      0000001DH   EDATA    BYTE      RecLength1
      0001079EH   XDATA    ---       RecvBuf1
      00010000H   XDATA    ---       RecvFrame
      00FF6028H   CODE     ---       RefreshParam
      00FF008EH   CODE     ---       RegSw
*DEL*:00000000H   CODE     ---       ResvCps
*SFR* 00000098H.0 DATA     BIT       RI
*SFR* 000000FFH   DATA     BYTE      RSTCFG
      000109ACH   XDATA    ---       RunInfo
      00FF5648H   CODE     ---       RunLed
      0001067CH   XDATA    ---       RunStatus
      00000021H   EDATA    ---       RX1_Buffer
      00000345H   EDATA    BYTE      RX1_Cnt
      00000341H   EDATA    WORD      Rx1_Timer
      000000E9H   EDATA    ---       RX2_Buffer
      00000348H   EDATA    BYTE      RX2_Cnt
      00000343H   EDATA    WORD      Rx2_Timer
      000001B1H   EDATA    ---       RX3_Buffer
      0000034BH   EDATA    BYTE      RX3_Cnt
      00000346H   EDATA    WORD      Rx3_Timer
      00000279H   EDATA    ---       RX4_Buffer
      0000034DH   EDATA    BYTE      RX4_Cnt
      00000349H   EDATA    WORD      Rx4_Timer
*SFR* 0000009BH   DATA     BYTE      S2BUF
*SFR* 0000009AH   DATA     BYTE      S2CON
*SFR* 0000009AH.0 DATA     BIT       S2RI
*SFR* 0000009AH.1 DATA     BIT       S2TI
*SFR* 000000ADH   DATA     BYTE      S3BUF
*SFR* 000000ACH   DATA     BYTE      S3CON
*SFR* 000000ACH.0 DATA     BIT       S3RI
*SFR* 000000ACH.1 DATA     BIT       S3TI
*SFR* 000000FEH   DATA     BYTE      S4BUF
*SFR* 000000FDH   DATA     BYTE      S4CON
*SFR* 000000FDH.0 DATA     BIT       S4RI
*SFR* 000000FDH.1 DATA     BIT       S4TI
      0000059FH   EDATA    ---       s_Head
      00FF0096H   CODE     ---       SaveParam
*SFR* 00000099H   DATA     BYTE      SBUF
      00010866H   XDATA    ---       ScaleBuf
*SFR* 00000098H   DATA     BYTE      SCON
      000005A4H   EDATA    ---       sendbuf
      000106D6H   XDATA    ---       SendBuf1
      00FF5BA4H   CODE     ---       SendBuffer
L251 LINKER/LOCATER V4.66.93.0                                                        02/28/2025  09:05:19  PAGE 26


      00FF59F7H   CODE     ---       SendCps
      00FF3278H   CODE     ---       SendData
*DEL*:00000000H   CODE     ---       SendParam
      0000049FH   EDATA    BYTE      SendPDFlag
      000004B5H   EDATA    WORD      SendPDTim
      00FF5CE6H   CODE     ---       SendReadPD
*DEL*:00000000H   CODE     ---       SendReadPD_Address
*DEL*:00000000H   CODE     ---       SendReadPD_Alarm
*DEL*:00000000H   CODE     ---       SendReadPD_DoseRate
*DEL*:00000000H   CODE     ---       SendReadPD_fix
*DEL*:00000000H   CODE     ---       SendReadPD_Info
*DEL*:00000000H   CODE     ---       SendReadPD_Thr
*DEL*:00000000H   CODE     ---       SendReadPD_Ver
      00FF585CH   CODE     ---       SendTcpFrame
      00FF5EF4H   CODE     ---       SensorInit
      00FF6012H   CODE     ---       SensorMeasureBegin
      00FF3DF8H   CODE     ---       Set_LP_DoseRateUnit
      00FF3D2FH   CODE     ---       Set_PD_DoseRateUnit
*DEL*:00000000H   CODE     ---       SetBkLight
      00FF58D9H   CODE     ---       SetCS
*DEL*:00000000H   CODE     ---       SetCurTime
      00FF4B5DH   CODE     ---       SetLcdTime
*DEL*:00000000H   CODE     ---       SetRegValue
*DEL*:00000000H   CODE     ---       SetRunTime
      00FF5E63H   CODE     ---       SetTextColor
      00FF5E82H   CODE     ---       SetTextIntegerNum
      00FF4BD2H   CODE     ---       ShowBorderR
      00FF4C47H   CODE     ---       ShowBorderY
      00FF5D9CH   CODE     ---       ShowControl
      00FF00A6H   CODE     ---       ShowCps
      000109E8H   XDATA    ---       ShowCpsMode
      00FF4F8AH   CODE     ---       ShowDevInfo
      00FF47D7H   CODE     ---       ShowDoseRate
      00FF5F42H   CODE     ---       ShowIcon
      00FF5EA1H   CODE     ---       ShowLight
      00FF5DBEH   CODE     ---       ShowLightON
      00FF5D30H   CODE     ---       ShowModule
      0001087CH   XDATA    ---       ShowParam
      00FF5EBDH   CODE     ---       ShowSpin
      00FF5105H   CODE     ---       ShowVal
      00FF3F85H   CODE     ---       SmothCpsCalcRate
*SFR* 000000CEH   DATA     BYTE      SPCTL
      00FF03D7H   CODE     NEAR LAB  sprintf
*SFR* 000000CDH   DATA     BYTE      SPSTAT
      00FF0493H   CODE     ---       sqrt?_
      00FF426AH   CODE     ---       StartMP3
      00FF39CFH   CODE     ---       StatusColor
      00FF5D78H   CODE     ---       StatusPoint
      00FF589BH   CODE     ---       StopAlmLight
      00FF4461H   CODE     ---       StopMP3
      00FF6128H   CODE     ---       strlen?_
      00010696H   XDATA    ---       StrTmp
*DEL*:00000000H   CODE     ---       SwDWord
*DEL*:00000000H   CODE     ---       SwEndian
*DEL*:00000000H   CODE     ---       SwEndianW
      00FF001EH   CODE     ---       SwWord
      00FF2A74H   CODE     ---       SyncModBusDev
      00FF5C25H   CODE     ---       SysInit
      00010508H   XDATA    ---       SysParam
      000004C9H   EDATA    ---       SysRunState
*SFR* 000000D6H   DATA     BYTE      T2H
*SFR* 000000D7H   DATA     BYTE      T2L
*SFR* 000000D4H   DATA     BYTE      T3H
*SFR* 000000D5H   DATA     BYTE      T3L
*SFR* 000000DDH.3 DATA     BIT       T3R
L251 LINKER/LOCATER V4.66.93.0                                                        02/28/2025  09:05:19  PAGE 27


*SFR* 000000D2H   DATA     BYTE      T4H
*SFR* 000000D3H   DATA     BYTE      T4L
*SFR* 000000DDH.7 DATA     BIT       T4R
*SFR* 000000DDH   DATA     BYTE      T4T3M
      00FF459CH   CODE     ---       Task1s
*SFR* 00000088H   DATA     BYTE      TCON
      0001092CH   XDATA    ---       TempBuf
*SFR* 0000008CH   DATA     BYTE      TH0
*SFR* 0000008DH   DATA     BYTE      TH1
      00000BB7H   EDATA    ---       ThresAddr
*SFR* 00000098H.1 DATA     BIT       TI
      00FF5F73H   CODE     ---       Timer0_Init
      00FF5A2AH   CODE     ---       Timer0_Isr
      0000096DH   EDATA    WORD      Timer0Cnt
      00FF60E5H   CODE     ---       Timer1_Init
      00FF60AFH   CODE     ---       Timer1_Isr
      00FF6136H   CODE     ---       Timer3_Init
      00FF60C1H   CODE     ---       Timer3_Isr
      00FF6143H   CODE     ---       Timer4_Init
      00FF60D3H   CODE     ---       Timer4_Isr
      00FF3AC1H   CODE     ---       TimerTask
*SFR* 0000008AH   DATA     BYTE      TL0
*SFR* 0000008BH   DATA     BYTE      TL1
*SFR* 00000089H   DATA     BYTE      TMOD
*SFR* 00000088H.4 DATA     BIT       TR0
*SFR* 00000088H.6 DATA     BIT       TR1
      0000034CH   EDATA    BYTE      TX1_Cnt
      0000034EH   EDATA    BYTE      TX2_Cnt
      0000034FH   EDATA    BYTE      TX3_Cnt
      00000350H   EDATA    BYTE      TX4_Cnt
      00FF5D7EH   CODE     ---       TxtColor
      00FF598CH   CODE     ---       UART1_config
      00FF568FH   CODE     ---       UART1_int
      00FF5952H   CODE     ---       Uart1Hnd
      00FF579CH   CODE     ---       Uart1Send
      00FF575CH   CODE     ---       UART2_config
      00FF5444H   CODE     ---       UART2_int
      00FF5E02H   CODE     ---       Uart2Hnd
      00FF57DCH   CODE     ---       Uart2Send
      00FF5A5CH   CODE     ---       UART3_config
      00FF548FH   CODE     ---       UART3_int
      00FF5FE6H   CODE     ---       Uart3Hnd
      00FF581CH   CODE     ---       Uart3Send
      00FF5A8DH   CODE     ---       UART4_config
      00FF54DAH   CODE     ---       UART4_int
      00FF5E23H   CODE     ---       Uart4Hnd
      00FF56D6H   CODE     ---       Uart4Send
      000004A0H   EDATA    ---       Unit
      00FF5D84H   CODE     ---       UnitText
      00FF5FD0H   CODE     ---       UpdataUI
*SFR* 000000F4H   DATA     BYTE      USBCON
      00FF38C8H   CODE     ---       UseHighParam
      00FF3B9BH   CODE     ---       UseLowParam
*DEL*:00000000H   CODE     ---       UseSLParam
      00FF4E01H   CODE     ---       ValidLcdFrame
      00FF5C4DH   CODE     ---       ValidRtuFrame
*DEL*:00000000H   CODE     ---       ValidTcpFrame
      00FF009AH   CODE     BYTE      VERSION
*SFR* 000000C1H   DATA     BYTE      WDT_CONTR
*DEL*:00000000H   CODE     ---       WordToSmall
*DEL*:00000000H   CODE     ---       WriteAck
      000102EDH   XDATA    ---       WriteAckFrame
      00FF2658H   CODE     ---       WriteFix
*DEL*:00000000H   CODE     ---       WriteNh
      00FF0046H   CODE     ---       WriteParam
L251 LINKER/LOCATER V4.66.93.0                                                        02/28/2025  09:05:19  PAGE 28


      00FF009EH   CODE     ---       WritePD_Ack
*DEL*:00000000H   CODE     ---       WritePD_Address
*DEL*:00000000H   CODE     ---       WritePD_Alarm
      00FF5BFAH   CODE     ---       WritePD_fix
*DEL*:00000000H   CODE     ---       WritePD_Info
      00FF5BCFH   CODE     ---       WritePD_Thr
      00FF00A1H   CODE     ---       WriteReg
*DEL*:00000000H   CODE     ---       WriteRegValue
*SFR* 000000E9H   DATA     BYTE      WTST



SYMBOL TABLE OF MODULE:  .\obj\PileCore (ISR)

      VALUE       REP       CLASS    TYPE      SYMBOL NAME
      ====================================================
      ---         MODULE    ---      ---       ISR

      ---         MODULE    ---      ---       main
      00FF4E65H   PUBLIC    CODE     ---       Char2Unicode
      00FF5FD0H   PUBLIC    CODE     ---       UpdataUI
      00FF0046H   PUBLIC    CODE     ---       WriteParam
      00FF0096H   PUBLIC    CODE     ---       SaveParam
      00FF5F8BH   PUBLIC    CODE     ---       Error
      00FF2A74H   PUBLIC    CODE     ---       SyncModBusDev
      00FF5ABEH   PUBLIC    CODE     ---       CheckDevInfo
      00FF6150H   PUBLIC    CODE     ---       DebugMsg
      00FF4EC8H   PUBLIC    CODE     ---       Dev_Init
      00FF5917H   PUBLIC    CODE     ---       DebugInt
      00FF3AC1H   PUBLIC    CODE     ---       TimerTask
      00FF0BC5H   PUBLIC    CODE     ---       DevParamDef
      00FF3EC1H   PUBLIC    CODE     ---       main
      00FF46BBH   PUBLIC    CODE     ---       InitLcd
      00FF4F29H   PUBLIC    CODE     ---       OutFlash
      00FF000EH   PUBLIC    CODE     ---       LedInit
      00FF5FA2H   PUBLIC    CODE     ---       PowerOff
      00FF53F9H   PUBLIC    CODE     ---       GetInput
      00FF50A9H   PUBLIC    CODE     ---       GeneralParam
      00FF459CH   PUBLIC    CODE     ---       Task1s
      00FF2E01H   PUBLIC    CODE     ---       GetDoseRate
      00FF589BH   PUBLIC    CODE     ---       StopAlmLight
      00FF5E44H   PUBLIC    CODE     ---       LX_MP3_Init
      00FF5648H   PUBLIC    CODE     ---       RunLed
      00FF571CH   PUBLIC    CODE     ---       IoInit
      00FF4316H   PUBLIC    CODE     ---       CheckAlarm
      00FF59C2H   PUBLIC    CODE     ---       delay_ms
      00FF53ADH   PUBLIC    CODE     ---       ParamCheck
      00FF55B8H   PUBLIC    CODE     ---       DevRun
      00FF22FAH   PUBLIC    CODE     ---       ETH_Init
      00FF4749H   PUBLIC    CODE     ---       OutCtl
      00FF4863H   PUBLIC    CODE     ---       ProbeSelect
      00FF426AH   PUBLIC    CODE     ---       StartMP3
      00FF35ADH   PUBLIC    CODE     ---       AbnorAlarm
      00FF496CH   PUBLIC    CODE     ---       AlmConfirm
      00FF51BBH   PUBLIC    CODE     ---       ReadParam
      00FF5265H   PUBLIC    CODE     ---       IoCtlTask
      00FF4461H   PUBLIC    CODE     ---       StopMP3
      00FF3C66H   PUBLIC    CODE     ---       CheckDoseRate
      0000049BH   PUBLIC    EDATA    ---       g_OutStatus
      0000049FH   PUBLIC    EDATA    BYTE      SendPDFlag
      000004A0H   PUBLIC    EDATA    ---       Unit
      000004A8H   PUBLIC    EDATA    BYTE      Eth_Initflag
      000004A9H   PUBLIC    EDATA    BYTE      AlarmConfirm_flag
      000004AAH   PUBLIC    EDATA    WORD      Eth_InitTim
      000004ACH   PUBLIC    EDATA    ---       ChannelError
L251 LINKER/LOCATER V4.66.93.0                                                        02/28/2025  09:05:19  PAGE 29


      000004B5H   PUBLIC    EDATA    WORD      SendPDTim
      000004B7H   PUBLIC    EDATA    BYTE      DevInfo_Showflag
      000004B8H   PUBLIC    EDATA    BYTE      MP3_StopFlag
      000004B9H   PUBLIC    EDATA    BYTE      ProbeSwitch_State
      000004BAH   PUBLIC    EDATA    BYTE      DevInfo_ShowCnt
      000004BBH   PUBLIC    EDATA    ---       g_Output
      000004BFH   PUBLIC    EDATA    FLOAT     My_Doserate
      000004C3H   PUBLIC    EDATA    BYTE      ProbeSwitch
      000004C4H   PUBLIC    EDATA    FLOAT     My_PDDoserate
      000004C8H   PUBLIC    EDATA    BYTE      Input_Status
      000004C9H   PUBLIC    EDATA    ---       SysRunState
      00010502H   PUBLIC    XDATA    ---       ProbeRegAddr
      00010508H   PUBLIC    XDATA    ---       SysParam
      0001067CH   PUBLIC    XDATA    ---       RunStatus
      00010696H   PUBLIC    XDATA    ---       StrTmp
      00FF009AH   PUBLIC    CODE     BYTE      VERSION
      00000094H   SFRSYM    DATA     BYTE      P0M0
      000000D0H   SFRSYM    DATA     BYTE      PSW
      000000BAH.7 SFRSYM    DATA     BIT       EAXFR
      0000009DH   SFRSYM    DATA     BYTE      IRCBAND
      00000097H   SFRSYM    DATA     BYTE      AUXR2
      000000EFH   SFRSYM    DATA     BYTE      AUXINTIF
      000000FDH   SFRSYM    DATA     BYTE      S4CON
      000000ACH   SFRSYM    DATA     BYTE      S3CON
      0000009AH   SFRSYM    DATA     BYTE      S2CON
      000000B7H   SFRSYM    DATA     BYTE      IPH
      000000CDH   SFRSYM    DATA     BYTE      SPSTAT
      000000DDH   SFRSYM    DATA     BYTE      T4T3M
      000000C1H   SFRSYM    DATA     BYTE      WDT_CONTR
      000000E9H   SFRSYM    DATA     BYTE      WTST
      000000DFH   SFRSYM    DATA     BYTE      IP3
      000000F4H   SFRSYM    DATA     BYTE      USBCON
      000000B5H   SFRSYM    DATA     BYTE      IP2
      000000FFH   SFRSYM    DATA     BYTE      RSTCFG
      000000C7H   SFRSYM    DATA     BYTE      IAP_CONTR
      000000F9H   SFRSYM    DATA     BYTE      LINICR
      0000008EH   SFRSYM    DATA     BYTE      AUXR
      000000AFH   SFRSYM    DATA     BYTE      IE2
      00000088H   SFRSYM    DATA     BYTE      TCON
      00000089H   SFRSYM    DATA     BYTE      TMOD
      00000098H   SFRSYM    DATA     BYTE      SCON
      000000C1H.4 SFRSYM    DATA     BIT       CLR_WDT
      000000F1H   SFRSYM    DATA     BYTE      CANICR
      00000087H   SFRSYM    DATA     BYTE      PCON
      000000BCH   SFRSYM    DATA     BYTE      ADC_CONTR
      000000E7H   SFRSYM    DATA     BYTE      CMPCR2
      000000E6H   SFRSYM    DATA     BYTE      CMPCR1
      000000DEH   SFRSYM    DATA     BYTE      ADCCFG
      000000B8H   SFRSYM    DATA     BYTE      IP
      0000008FH   SFRSYM    DATA     BYTE      INTCLKO
      000000EEH   SFRSYM    DATA     BYTE      IP3H
      000000B6H   SFRSYM    DATA     BYTE      IP2H
      000000A8H   SFRSYM    DATA     BYTE      IE
      000000BBH   SFRSYM    DATA     BYTE      P_SW3
      000000BAH   SFRSYM    DATA     BYTE      P_SW2
      000000A2H   SFRSYM    DATA     BYTE      P_SW1
      000000CEH   SFRSYM    DATA     BYTE      SPCTL
      000000F8H   SFRSYM    DATA     BYTE      P7
      000000A8H.7 SFRSYM    DATA     BIT       EA
      000000E1H   SFRSYM    DATA     BYTE      P7M1
      000000E8H   SFRSYM    DATA     BYTE      P6
      000000C8H   SFRSYM    DATA     BYTE      P5
      000000CBH   SFRSYM    DATA     BYTE      P6M1
      000000E2H   SFRSYM    DATA     BYTE      P7M0
      000000C0H   SFRSYM    DATA     BYTE      P4
L251 LINKER/LOCATER V4.66.93.0                                                        02/28/2025  09:05:19  PAGE 30


      000000C9H   SFRSYM    DATA     BYTE      P5M1
      000000CCH   SFRSYM    DATA     BYTE      P6M0
      000000B0H   SFRSYM    DATA     BYTE      P3
      000000B3H   SFRSYM    DATA     BYTE      P4M1
      000000CAH   SFRSYM    DATA     BYTE      P5M0
      000000A0H   SFRSYM    DATA     BYTE      P2
      000000B1H   SFRSYM    DATA     BYTE      P3M1
      000000B4H   SFRSYM    DATA     BYTE      P4M0
      00000090H   SFRSYM    DATA     BYTE      P1
      00000095H   SFRSYM    DATA     BYTE      P2M1
      000000B2H   SFRSYM    DATA     BYTE      P3M0
      00000080H   SFRSYM    DATA     BYTE      P0
      00000091H   SFRSYM    DATA     BYTE      P1M1
      00000096H   SFRSYM    DATA     BYTE      P2M0
      00000092H   SFRSYM    DATA     BYTE      P1M0
      00000093H   SFRSYM    DATA     BYTE      P0M1

      ---         MODULE    ---      ---       uart
      00FF568FH   PUBLIC    CODE     ---       UART1_int
      00FF5444H   PUBLIC    CODE     ---       UART2_int
      00FF548FH   PUBLIC    CODE     ---       UART3_int
      00FF54DAH   PUBLIC    CODE     ---       UART4_int
      00FF598CH   PUBLIC    CODE     ---       UART1_config
      00FF575CH   PUBLIC    CODE     ---       UART2_config
      00FF5A5CH   PUBLIC    CODE     ---       UART3_config
      00FF5A8DH   PUBLIC    CODE     ---       UART4_config
      00FF6067H   PUBLIC    CODE     ---       ClearUart1Buf
      00FF6079H   PUBLIC    CODE     ---       ClearUart2Buf
      00FF608BH   PUBLIC    CODE     ---       ClearUart3Buf
      00FF609DH   PUBLIC    CODE     ---       ClearUart4Buf
      00FF579CH   PUBLIC    CODE     ---       Uart1Send
      00FF57DCH   PUBLIC    CODE     ---       Uart2Send
      00FF581CH   PUBLIC    CODE     ---       Uart3Send
      00FF56D6H   PUBLIC    CODE     ---       Uart4Send
      00FF5952H   PUBLIC    CODE     ---       Uart1Hnd
      00FF5E02H   PUBLIC    CODE     ---       Uart2Hnd
      00FF5FE6H   PUBLIC    CODE     ---       Uart3Hnd
      00FF5E23H   PUBLIC    CODE     ---       Uart4Hnd
      00000020H.0 PUBLIC    BIT      BIT       B_TX1_Busy
      00000020H.1 PUBLIC    BIT      BIT       B_TX2_Busy
      00000020H.2 PUBLIC    BIT      BIT       B_TX3_Busy
      00000020H.3 PUBLIC    BIT      BIT       B_TX4_Busy
      00000021H   PUBLIC    EDATA    ---       RX1_Buffer
      000000E9H   PUBLIC    EDATA    ---       RX2_Buffer
      000001B1H   PUBLIC    EDATA    ---       RX3_Buffer
      00000279H   PUBLIC    EDATA    ---       RX4_Buffer
      00000341H   PUBLIC    EDATA    WORD      Rx1_Timer
      00000343H   PUBLIC    EDATA    WORD      Rx2_Timer
      00000345H   PUBLIC    EDATA    BYTE      RX1_Cnt
      00000346H   PUBLIC    EDATA    WORD      Rx3_Timer
      00000348H   PUBLIC    EDATA    BYTE      RX2_Cnt
      00000349H   PUBLIC    EDATA    WORD      Rx4_Timer
      0000034BH   PUBLIC    EDATA    BYTE      RX3_Cnt
      0000034CH   PUBLIC    EDATA    BYTE      TX1_Cnt
      0000034DH   PUBLIC    EDATA    BYTE      RX4_Cnt
      0000034EH   PUBLIC    EDATA    BYTE      TX2_Cnt
      0000034FH   PUBLIC    EDATA    BYTE      TX3_Cnt
      00000350H   PUBLIC    EDATA    BYTE      TX4_Cnt
      000000D0H   SFRSYM    DATA     BYTE      PSW
      0000009DH   SFRSYM    DATA     BYTE      IRCBAND
      00000097H   SFRSYM    DATA     BYTE      AUXR2
      000000B7H.4 SFRSYM    DATA     BIT       PSH
      000000EFH   SFRSYM    DATA     BYTE      AUXINTIF
      000000FDH   SFRSYM    DATA     BYTE      S4CON
      000000ACH   SFRSYM    DATA     BYTE      S3CON
L251 LINKER/LOCATER V4.66.93.0                                                        02/28/2025  09:05:19  PAGE 31


      0000009AH   SFRSYM    DATA     BYTE      S2CON
      000000FEH   SFRSYM    DATA     BYTE      S4BUF
      000000ADH   SFRSYM    DATA     BYTE      S3BUF
      0000009BH   SFRSYM    DATA     BYTE      S2BUF
      000000B7H   SFRSYM    DATA     BYTE      IPH
      000000CDH   SFRSYM    DATA     BYTE      SPSTAT
      000000DDH   SFRSYM    DATA     BYTE      T4T3M
      000000C1H   SFRSYM    DATA     BYTE      WDT_CONTR
      000000DFH.1 SFRSYM    DATA     BIT       PS4
      000000DFH.0 SFRSYM    DATA     BIT       PS3
      000000B5H.0 SFRSYM    DATA     BIT       PS2
      000000D7H   SFRSYM    DATA     BYTE      T2L
      000000D6H   SFRSYM    DATA     BYTE      T2H
      000000DFH   SFRSYM    DATA     BYTE      IP3
      000000F4H   SFRSYM    DATA     BYTE      USBCON
      000000AFH.2 SFRSYM    DATA     BIT       ET2
      000000B5H   SFRSYM    DATA     BYTE      IP2
      000000FFH   SFRSYM    DATA     BYTE      RSTCFG
      000000C7H   SFRSYM    DATA     BYTE      IAP_CONTR
      000000F9H   SFRSYM    DATA     BYTE      LINICR
      0000008EH   SFRSYM    DATA     BYTE      AUXR
      000000AFH   SFRSYM    DATA     BYTE      IE2
      00000088H   SFRSYM    DATA     BYTE      TCON
      00000089H   SFRSYM    DATA     BYTE      TMOD
      00000098H   SFRSYM    DATA     BYTE      SCON
      000000F1H   SFRSYM    DATA     BYTE      CANICR
      00000087H   SFRSYM    DATA     BYTE      PCON
      00000099H   SFRSYM    DATA     BYTE      SBUF
      000000BCH   SFRSYM    DATA     BYTE      ADC_CONTR
      000000E7H   SFRSYM    DATA     BYTE      CMPCR2
      000000E6H   SFRSYM    DATA     BYTE      CMPCR1
      000000FDH.1 SFRSYM    DATA     BIT       S4TI
      000000ACH.1 SFRSYM    DATA     BIT       S3TI
      0000009AH.1 SFRSYM    DATA     BIT       S2TI
      000000B8H.4 SFRSYM    DATA     BIT       PS
      000000FDH.0 SFRSYM    DATA     BIT       S4RI
      000000ACH.0 SFRSYM    DATA     BIT       S3RI
      0000009AH.0 SFRSYM    DATA     BIT       S2RI
      000000EEH.1 SFRSYM    DATA     BIT       PS4H
      000000EEH.0 SFRSYM    DATA     BIT       PS3H
      000000B6H.0 SFRSYM    DATA     BIT       PS2H
      00000098H.1 SFRSYM    DATA     BIT       TI
      00000098H.0 SFRSYM    DATA     BIT       RI
      000000DEH   SFRSYM    DATA     BYTE      ADCCFG
      000000B8H   SFRSYM    DATA     BYTE      IP
      000000A8H.4 SFRSYM    DATA     BIT       ES
      0000008FH   SFRSYM    DATA     BYTE      INTCLKO
      000000EEH   SFRSYM    DATA     BYTE      IP3H
      000000B6H   SFRSYM    DATA     BYTE      IP2H
      000000A8H   SFRSYM    DATA     BYTE      IE
      000000BBH   SFRSYM    DATA     BYTE      P_SW3
      000000BAH   SFRSYM    DATA     BYTE      P_SW2
      000000A2H   SFRSYM    DATA     BYTE      P_SW1
      000000CEH   SFRSYM    DATA     BYTE      SPCTL
      000000F8H   SFRSYM    DATA     BYTE      P7
      000000E8H   SFRSYM    DATA     BYTE      P6
      000000C8H   SFRSYM    DATA     BYTE      P5
      000000C0H   SFRSYM    DATA     BYTE      P4
      000000B0H   SFRSYM    DATA     BYTE      P3
      000000A0H   SFRSYM    DATA     BYTE      P2
      00000090H   SFRSYM    DATA     BYTE      P1
      00000080H   SFRSYM    DATA     BYTE      P0

      ---         MODULE    ---      ---       ads1110
      000000D0H   SFRSYM    DATA     BYTE      PSW
L251 LINKER/LOCATER V4.66.93.0                                                        02/28/2025  09:05:19  PAGE 32


      0000009DH   SFRSYM    DATA     BYTE      IRCBAND
      00000097H   SFRSYM    DATA     BYTE      AUXR2
      000000EFH   SFRSYM    DATA     BYTE      AUXINTIF
      000000FDH   SFRSYM    DATA     BYTE      S4CON
      000000ACH   SFRSYM    DATA     BYTE      S3CON
      0000009AH   SFRSYM    DATA     BYTE      S2CON
      000000B7H   SFRSYM    DATA     BYTE      IPH
      000000CDH   SFRSYM    DATA     BYTE      SPSTAT
      000000DDH   SFRSYM    DATA     BYTE      T4T3M
      000000C1H   SFRSYM    DATA     BYTE      WDT_CONTR
      000000DFH   SFRSYM    DATA     BYTE      IP3
      000000F4H   SFRSYM    DATA     BYTE      USBCON
      000000B5H   SFRSYM    DATA     BYTE      IP2
      000000FFH   SFRSYM    DATA     BYTE      RSTCFG
      000000C7H   SFRSYM    DATA     BYTE      IAP_CONTR
      000000F9H   SFRSYM    DATA     BYTE      LINICR
      0000008EH   SFRSYM    DATA     BYTE      AUXR
      000000AFH   SFRSYM    DATA     BYTE      IE2
      00000088H   SFRSYM    DATA     BYTE      TCON
      00000089H   SFRSYM    DATA     BYTE      TMOD
      00000098H   SFRSYM    DATA     BYTE      SCON
      000000F1H   SFRSYM    DATA     BYTE      CANICR
      00000087H   SFRSYM    DATA     BYTE      PCON
      000000BCH   SFRSYM    DATA     BYTE      ADC_CONTR
      000000E7H   SFRSYM    DATA     BYTE      CMPCR2
      000000E6H   SFRSYM    DATA     BYTE      CMPCR1
      000000DEH   SFRSYM    DATA     BYTE      ADCCFG
      000000B8H   SFRSYM    DATA     BYTE      IP
      0000008FH   SFRSYM    DATA     BYTE      INTCLKO
      000000EEH   SFRSYM    DATA     BYTE      IP3H
      000000B6H   SFRSYM    DATA     BYTE      IP2H
      000000A8H   SFRSYM    DATA     BYTE      IE
      000000BBH   SFRSYM    DATA     BYTE      P_SW3
      000000BAH   SFRSYM    DATA     BYTE      P_SW2
      000000A2H   SFRSYM    DATA     BYTE      P_SW1
      000000CEH   SFRSYM    DATA     BYTE      SPCTL
      000000F8H   SFRSYM    DATA     BYTE      P7
      000000E8H   SFRSYM    DATA     BYTE      P6
      000000C8H   SFRSYM    DATA     BYTE      P5
      000000C0H   SFRSYM    DATA     BYTE      P4
      000000B0H   SFRSYM    DATA     BYTE      P3
      000000A0H   SFRSYM    DATA     BYTE      P2
      00000090H   SFRSYM    DATA     BYTE      P1
      00000080H   SFRSYM    DATA     BYTE      P0

      ---         MODULE    ---      ---       EepRom
      00FF5FFCH   PUBLIC    CODE     ---       DisableEEPROM
      00FF5B1DH   PUBLIC    CODE     ---       EEPROM_SectorErase
      00FF5F5BH   PUBLIC    CODE     ---       EEPROM_Trig
      00FF4D2CH   PUBLIC    CODE     ---       EEPROM_read
      00FF3163H   PUBLIC    CODE     ---       EEPROM_write
      00000A43H   PUBLIC    EDATA    BYTE      ?EEPROM_read?BYTE
      0000097CH   PUBLIC    EDATA    BYTE      ?EEPROM_write?BYTE
      000000D0H   SFRSYM    DATA     BYTE      PSW
      0000009DH   SFRSYM    DATA     BYTE      IRCBAND
      000000D0H.5 SFRSYM    DATA     BIT       F0
      00000097H   SFRSYM    DATA     BYTE      AUXR2
      000000C6H   SFRSYM    DATA     BYTE      IAP_TRIG
      000000EFH   SFRSYM    DATA     BYTE      AUXINTIF
      000000FDH   SFRSYM    DATA     BYTE      S4CON
      000000ACH   SFRSYM    DATA     BYTE      S3CON
      0000009AH   SFRSYM    DATA     BYTE      S2CON
      000000B7H   SFRSYM    DATA     BYTE      IPH
      000000CDH   SFRSYM    DATA     BYTE      SPSTAT
      000000DDH   SFRSYM    DATA     BYTE      T4T3M
L251 LINKER/LOCATER V4.66.93.0                                                        02/28/2025  09:05:19  PAGE 33


      000000C1H   SFRSYM    DATA     BYTE      WDT_CONTR
      000000C2H   SFRSYM    DATA     BYTE      IAP_DATA
      000000DFH   SFRSYM    DATA     BYTE      IP3
      000000F4H   SFRSYM    DATA     BYTE      USBCON
      000000B5H   SFRSYM    DATA     BYTE      IP2
      000000FFH   SFRSYM    DATA     BYTE      RSTCFG
      000000C7H   SFRSYM    DATA     BYTE      IAP_CONTR
      000000F9H   SFRSYM    DATA     BYTE      LINICR
      0000008EH   SFRSYM    DATA     BYTE      AUXR
      000000AFH   SFRSYM    DATA     BYTE      IE2
      00000088H   SFRSYM    DATA     BYTE      TCON
      00000089H   SFRSYM    DATA     BYTE      TMOD
      00000098H   SFRSYM    DATA     BYTE      SCON
      000000F5H   SFRSYM    DATA     BYTE      IAP_TPS
      000000F1H   SFRSYM    DATA     BYTE      CANICR
      00000087H   SFRSYM    DATA     BYTE      PCON
      000000BCH   SFRSYM    DATA     BYTE      ADC_CONTR
      000000E7H   SFRSYM    DATA     BYTE      CMPCR2
      000000E6H   SFRSYM    DATA     BYTE      CMPCR1
      000000C4H   SFRSYM    DATA     BYTE      IAP_ADDRL
      000000C3H   SFRSYM    DATA     BYTE      IAP_ADDRH
      000000F6H   SFRSYM    DATA     BYTE      IAP_ADDRE
      000000DEH   SFRSYM    DATA     BYTE      ADCCFG
      000000B8H   SFRSYM    DATA     BYTE      IP
      0000008FH   SFRSYM    DATA     BYTE      INTCLKO
      000000EEH   SFRSYM    DATA     BYTE      IP3H
      000000B6H   SFRSYM    DATA     BYTE      IP2H
      000000C5H   SFRSYM    DATA     BYTE      IAP_CMD
      000000A8H   SFRSYM    DATA     BYTE      IE
      000000BBH   SFRSYM    DATA     BYTE      P_SW3
      000000BAH   SFRSYM    DATA     BYTE      P_SW2
      000000A2H   SFRSYM    DATA     BYTE      P_SW1
      000000CEH   SFRSYM    DATA     BYTE      SPCTL
      000000F8H   SFRSYM    DATA     BYTE      P7
      000000A8H.7 SFRSYM    DATA     BIT       EA
      000000E8H   SFRSYM    DATA     BYTE      P6
      000000C8H   SFRSYM    DATA     BYTE      P5
      000000C0H   SFRSYM    DATA     BYTE      P4
      000000B0H   SFRSYM    DATA     BYTE      P3
      000000A0H   SFRSYM    DATA     BYTE      P2
      00000090H   SFRSYM    DATA     BYTE      P1
      00000080H   SFRSYM    DATA     BYTE      P0

      ---         MODULE    ---      ---       i2c
      00FF5F29H   PUBLIC    CODE     ---       delay_us
      00000C2DH   PUBLIC    EDATA    BYTE      P2DIR
      000000D0H   SFRSYM    DATA     BYTE      PSW
      0000009DH   SFRSYM    DATA     BYTE      IRCBAND
      00000097H   SFRSYM    DATA     BYTE      AUXR2
      000000EFH   SFRSYM    DATA     BYTE      AUXINTIF
      000000FDH   SFRSYM    DATA     BYTE      S4CON
      000000ACH   SFRSYM    DATA     BYTE      S3CON
      0000009AH   SFRSYM    DATA     BYTE      S2CON
      000000B7H   SFRSYM    DATA     BYTE      IPH
      000000CDH   SFRSYM    DATA     BYTE      SPSTAT
      000000DDH   SFRSYM    DATA     BYTE      T4T3M
      000000C1H   SFRSYM    DATA     BYTE      WDT_CONTR
      000000DFH   SFRSYM    DATA     BYTE      IP3
      000000F4H   SFRSYM    DATA     BYTE      USBCON
      000000B5H   SFRSYM    DATA     BYTE      IP2
      000000FFH   SFRSYM    DATA     BYTE      RSTCFG
      000000C7H   SFRSYM    DATA     BYTE      IAP_CONTR
      000000F9H   SFRSYM    DATA     BYTE      LINICR
      0000008EH   SFRSYM    DATA     BYTE      AUXR
      000000AFH   SFRSYM    DATA     BYTE      IE2
L251 LINKER/LOCATER V4.66.93.0                                                        02/28/2025  09:05:19  PAGE 34


      00000088H   SFRSYM    DATA     BYTE      TCON
      00000089H   SFRSYM    DATA     BYTE      TMOD
      00000098H   SFRSYM    DATA     BYTE      SCON
      000000F1H   SFRSYM    DATA     BYTE      CANICR
      00000087H   SFRSYM    DATA     BYTE      PCON
      000000BCH   SFRSYM    DATA     BYTE      ADC_CONTR
      000000E7H   SFRSYM    DATA     BYTE      CMPCR2
      000000E6H   SFRSYM    DATA     BYTE      CMPCR1
      000000DEH   SFRSYM    DATA     BYTE      ADCCFG
      000000B8H   SFRSYM    DATA     BYTE      IP
      0000008FH   SFRSYM    DATA     BYTE      INTCLKO
      000000EEH   SFRSYM    DATA     BYTE      IP3H
      000000B6H   SFRSYM    DATA     BYTE      IP2H
      000000A8H   SFRSYM    DATA     BYTE      IE
      000000BBH   SFRSYM    DATA     BYTE      P_SW3
      000000BAH   SFRSYM    DATA     BYTE      P_SW2
      000000A2H   SFRSYM    DATA     BYTE      P_SW1
      000000CEH   SFRSYM    DATA     BYTE      SPCTL
      000000F8H   SFRSYM    DATA     BYTE      P7
      000000E8H   SFRSYM    DATA     BYTE      P6
      000000C8H   SFRSYM    DATA     BYTE      P5
      000000C0H   SFRSYM    DATA     BYTE      P4
      000000B0H   SFRSYM    DATA     BYTE      P3
      000000A0H   SFRSYM    DATA     BYTE      P2
      00000090H   SFRSYM    DATA     BYTE      P1
      00000080H   SFRSYM    DATA     BYTE      P0

      ---         MODULE    ---      ---       Lcd
      00FF5D9CH   PUBLIC    CODE     ---       ShowControl
      00FF5D30H   PUBLIC    CODE     ---       ShowModule
      00FF5EA1H   PUBLIC    CODE     ---       ShowLight
      00FF5600H   PUBLIC    CODE     ---       HndLcdFrame
      00FF4101H   PUBLIC    CODE     ---       LcdCmd
      00FF5FB9H   PUBLIC    CODE     ---       HndLcdData
      00FF5F42H   PUBLIC    CODE     ---       ShowIcon
      00FF5ED9H   PUBLIC    CODE     ---       ClearRevBuf
      00FF5DBEH   PUBLIC    CODE     ---       ShowLightON
      00FF5EBDH   PUBLIC    CODE     ---       ShowSpin
      00FF5105H   PUBLIC    CODE     ---       ShowVal
      00FF5210H   PUBLIC    CODE     ---       PopWord
      00FF4B5DH   PUBLIC    CODE     ---       SetLcdTime
      00FF5E63H   PUBLIC    CODE     ---       SetTextColor
      00FF5E82H   PUBLIC    CODE     ---       SetTextIntegerNum
      00FF5DE0H   PUBLIC    CODE     ---       HideControl
      00FF5C9BH   PUBLIC    CODE     ---       HideModule
      00FF001EH   PUBLIC    CODE     ---       SwWord
      00FF4E01H   PUBLIC    CODE     ---       ValidLcdFrame
      0000001DH   PUBLIC    EDATA    BYTE      RecLength1
      0000001EH   PUBLIC    EDATA    BYTE      LcdFrameloc
      0000001FH   PUBLIC    EDATA    BYTE      DataIndex
      000106D6H   PUBLIC    XDATA    ---       SendBuf1
      0001079EH   PUBLIC    XDATA    ---       RecvBuf1
      000000D0H   SFRSYM    DATA     BYTE      PSW
      0000009DH   SFRSYM    DATA     BYTE      IRCBAND
      00000097H   SFRSYM    DATA     BYTE      AUXR2
      000000EFH   SFRSYM    DATA     BYTE      AUXINTIF
      000000FDH   SFRSYM    DATA     BYTE      S4CON
      000000ACH   SFRSYM    DATA     BYTE      S3CON
      0000009AH   SFRSYM    DATA     BYTE      S2CON
      000000B7H   SFRSYM    DATA     BYTE      IPH
      000000CDH   SFRSYM    DATA     BYTE      SPSTAT
      000000DDH   SFRSYM    DATA     BYTE      T4T3M
      000000C1H   SFRSYM    DATA     BYTE      WDT_CONTR
      000000DFH   SFRSYM    DATA     BYTE      IP3
      000000F4H   SFRSYM    DATA     BYTE      USBCON
L251 LINKER/LOCATER V4.66.93.0                                                        02/28/2025  09:05:19  PAGE 35


      000000B5H   SFRSYM    DATA     BYTE      IP2
      000000FFH   SFRSYM    DATA     BYTE      RSTCFG
      000000C7H   SFRSYM    DATA     BYTE      IAP_CONTR
      000000F9H   SFRSYM    DATA     BYTE      LINICR
      0000008EH   SFRSYM    DATA     BYTE      AUXR
      000000AFH   SFRSYM    DATA     BYTE      IE2
      00000088H   SFRSYM    DATA     BYTE      TCON
      00000089H   SFRSYM    DATA     BYTE      TMOD
      00000098H   SFRSYM    DATA     BYTE      SCON
      000000F1H   SFRSYM    DATA     BYTE      CANICR
      00000087H   SFRSYM    DATA     BYTE      PCON
      000000BCH   SFRSYM    DATA     BYTE      ADC_CONTR
      000000E7H   SFRSYM    DATA     BYTE      CMPCR2
      000000E6H   SFRSYM    DATA     BYTE      CMPCR1
      000000DEH   SFRSYM    DATA     BYTE      ADCCFG
      000000B8H   SFRSYM    DATA     BYTE      IP
      0000008FH   SFRSYM    DATA     BYTE      INTCLKO
      000000EEH   SFRSYM    DATA     BYTE      IP3H
      000000B6H   SFRSYM    DATA     BYTE      IP2H
      000000A8H   SFRSYM    DATA     BYTE      IE
      000000BBH   SFRSYM    DATA     BYTE      P_SW3
      000000BAH   SFRSYM    DATA     BYTE      P_SW2
      000000A2H   SFRSYM    DATA     BYTE      P_SW1
      000000CEH   SFRSYM    DATA     BYTE      SPCTL
      000000F8H   SFRSYM    DATA     BYTE      P7
      000000E8H   SFRSYM    DATA     BYTE      P6
      000000C8H   SFRSYM    DATA     BYTE      P5
      000000C0H   SFRSYM    DATA     BYTE      P4
      000000B0H   SFRSYM    DATA     BYTE      P3
      000000A0H   SFRSYM    DATA     BYTE      P2
      00000090H   SFRSYM    DATA     BYTE      P1
      00000080H   SFRSYM    DATA     BYTE      P0

      ---         MODULE    ---      ---       LcdApp
      00FF39CFH   PUBLIC    CODE     ---       StatusColor
      00FF556FH   PUBLIC    CODE     ---       ReadReg
      00FF00A1H   PUBLIC    CODE     ---       WriteReg
      00FF59F7H   PUBLIC    CODE     ---       SendCps
      00FF47D7H   PUBLIC    CODE     ---       ShowDoseRate
      00FF00A6H   PUBLIC    CODE     ---       ShowCps
      00FF4F8AH   PUBLIC    CODE     ---       ShowDevInfo
      00FF4BD2H   PUBLIC    CODE     ---       ShowBorderR
      00FF5CC1H   PUBLIC    CODE     ---       HideBorder
      00FF4C47H   PUBLIC    CODE     ---       ShowBorderY
      00FF5D54H   PUBLIC    CODE     ---       Cps_Check
      00010866H   PUBLIC    XDATA    ---       ScaleBuf
      0001087CH   PUBLIC    XDATA    ---       ShowParam
      00010916H   PUBLIC    XDATA    ---       DevInfo
      0001092CH   PUBLIC    XDATA    ---       TempBuf
      000109ACH   PUBLIC    XDATA    ---       RunInfo
      000109E8H   PUBLIC    XDATA    ---       ShowCpsMode
      00000B69H   PUBLIC    EDATA    BYTE      DoseRateAlarm
      00000B6AH   PUBLIC    EDATA    BYTE      HisAlarm
      00000B6BH   PUBLIC    EDATA    BYTE      NeedGetRet
      00FF5D78H   PUBLIC    CODE     ---       StatusPoint
      00FF5D7EH   PUBLIC    CODE     ---       TxtColor
      00FF5D84H   PUBLIC    CODE     ---       UnitText
      000000D0H   SFRSYM    DATA     BYTE      PSW
      0000009DH   SFRSYM    DATA     BYTE      IRCBAND
      00000097H   SFRSYM    DATA     BYTE      AUXR2
      000000EFH   SFRSYM    DATA     BYTE      AUXINTIF
      000000FDH   SFRSYM    DATA     BYTE      S4CON
      000000ACH   SFRSYM    DATA     BYTE      S3CON
      0000009AH   SFRSYM    DATA     BYTE      S2CON
      000000B7H   SFRSYM    DATA     BYTE      IPH
L251 LINKER/LOCATER V4.66.93.0                                                        02/28/2025  09:05:19  PAGE 36


      000000CDH   SFRSYM    DATA     BYTE      SPSTAT
      000000DDH   SFRSYM    DATA     BYTE      T4T3M
      000000C1H   SFRSYM    DATA     BYTE      WDT_CONTR
      000000DFH   SFRSYM    DATA     BYTE      IP3
      000000F4H   SFRSYM    DATA     BYTE      USBCON
      000000B5H   SFRSYM    DATA     BYTE      IP2
      000000FFH   SFRSYM    DATA     BYTE      RSTCFG
      000000C7H   SFRSYM    DATA     BYTE      IAP_CONTR
      000000F9H   SFRSYM    DATA     BYTE      LINICR
      0000008EH   SFRSYM    DATA     BYTE      AUXR
      000000AFH   SFRSYM    DATA     BYTE      IE2
      00000088H   SFRSYM    DATA     BYTE      TCON
      00000089H   SFRSYM    DATA     BYTE      TMOD
      00000098H   SFRSYM    DATA     BYTE      SCON
      000000F1H   SFRSYM    DATA     BYTE      CANICR
      00000087H   SFRSYM    DATA     BYTE      PCON
      000000BCH   SFRSYM    DATA     BYTE      ADC_CONTR
      000000E7H   SFRSYM    DATA     BYTE      CMPCR2
      000000E6H   SFRSYM    DATA     BYTE      CMPCR1
      000000DEH   SFRSYM    DATA     BYTE      ADCCFG
      000000B8H   SFRSYM    DATA     BYTE      IP
      0000008FH   SFRSYM    DATA     BYTE      INTCLKO
      000000EEH   SFRSYM    DATA     BYTE      IP3H
      000000B6H   SFRSYM    DATA     BYTE      IP2H
      000000A8H   SFRSYM    DATA     BYTE      IE
      000000BBH   SFRSYM    DATA     BYTE      P_SW3
      000000BAH   SFRSYM    DATA     BYTE      P_SW2
      000000A2H   SFRSYM    DATA     BYTE      P_SW1
      000000CEH   SFRSYM    DATA     BYTE      SPCTL
      000000F8H   SFRSYM    DATA     BYTE      P7
      000000E8H   SFRSYM    DATA     BYTE      P6
      000000C8H   SFRSYM    DATA     BYTE      P5
      000000C0H   SFRSYM    DATA     BYTE      P4
      000000B0H   SFRSYM    DATA     BYTE      P3
      000000A0H   SFRSYM    DATA     BYTE      P2
      00000090H   SFRSYM    DATA     BYTE      P1
      00000080H   SFRSYM    DATA     BYTE      P0

      ---         MODULE    ---      ---       mcp4725
      00FF143AH   PUBLIC    CODE     ---       MCP4725_OutVol
      00000BB7H   PUBLIC    EDATA    ---       ThresAddr
      000000D0H   SFRSYM    DATA     BYTE      PSW
      0000009DH   SFRSYM    DATA     BYTE      IRCBAND
      00000097H   SFRSYM    DATA     BYTE      AUXR2
      000000EFH   SFRSYM    DATA     BYTE      AUXINTIF
      000000FDH   SFRSYM    DATA     BYTE      S4CON
      000000ACH   SFRSYM    DATA     BYTE      S3CON
      0000009AH   SFRSYM    DATA     BYTE      S2CON
      000000B7H   SFRSYM    DATA     BYTE      IPH
      000000CDH   SFRSYM    DATA     BYTE      SPSTAT
      000000DDH   SFRSYM    DATA     BYTE      T4T3M
      000000C1H   SFRSYM    DATA     BYTE      WDT_CONTR
      000000DFH   SFRSYM    DATA     BYTE      IP3
      000000F4H   SFRSYM    DATA     BYTE      USBCON
      000000B5H   SFRSYM    DATA     BYTE      IP2
      000000FFH   SFRSYM    DATA     BYTE      RSTCFG
      000000C7H   SFRSYM    DATA     BYTE      IAP_CONTR
      000000F9H   SFRSYM    DATA     BYTE      LINICR
      0000008EH   SFRSYM    DATA     BYTE      AUXR
      000000AFH   SFRSYM    DATA     BYTE      IE2
      00000088H   SFRSYM    DATA     BYTE      TCON
      00000089H   SFRSYM    DATA     BYTE      TMOD
      00000098H   SFRSYM    DATA     BYTE      SCON
      000000F1H   SFRSYM    DATA     BYTE      CANICR
      00000087H   SFRSYM    DATA     BYTE      PCON
L251 LINKER/LOCATER V4.66.93.0                                                        02/28/2025  09:05:19  PAGE 37


      000000BCH   SFRSYM    DATA     BYTE      ADC_CONTR
      000000E7H   SFRSYM    DATA     BYTE      CMPCR2
      000000E6H   SFRSYM    DATA     BYTE      CMPCR1
      000000DEH   SFRSYM    DATA     BYTE      ADCCFG
      000000B8H   SFRSYM    DATA     BYTE      IP
      0000008FH   SFRSYM    DATA     BYTE      INTCLKO
      000000EEH   SFRSYM    DATA     BYTE      IP3H
      000000B6H   SFRSYM    DATA     BYTE      IP2H
      000000A8H   SFRSYM    DATA     BYTE      IE
      000000BBH   SFRSYM    DATA     BYTE      P_SW3
      000000BAH   SFRSYM    DATA     BYTE      P_SW2
      000000A2H   SFRSYM    DATA     BYTE      P_SW1
      000000CEH   SFRSYM    DATA     BYTE      SPCTL
      000000F8H   SFRSYM    DATA     BYTE      P7
      000000E8H   SFRSYM    DATA     BYTE      P6
      000000C8H   SFRSYM    DATA     BYTE      P5
      000000C0H   SFRSYM    DATA     BYTE      P4
      000000B0H   SFRSYM    DATA     BYTE      P3
      000000A0H   SFRSYM    DATA     BYTE      P2
      00000090H   SFRSYM    DATA     BYTE      P1
      00000080H   SFRSYM    DATA     BYTE      P0
      00000091H   SFRSYM    DATA     BYTE      P1M1
      00000092H   SFRSYM    DATA     BYTE      P1M0

      ---         MODULE    ---      ---       ModBus
      00FF5C4DH   PUBLIC    CODE     ---       ValidRtuFrame
      00FF4047H   PUBLIC    CODE     ---       CRC16Calc
      00FF008EH   PUBLIC    CODE     ---       RegSw
      000000D0H   SFRSYM    DATA     BYTE      PSW
      0000009DH   SFRSYM    DATA     BYTE      IRCBAND
      00000097H   SFRSYM    DATA     BYTE      AUXR2
      000000EFH   SFRSYM    DATA     BYTE      AUXINTIF
      000000FDH   SFRSYM    DATA     BYTE      S4CON
      000000ACH   SFRSYM    DATA     BYTE      S3CON
      0000009AH   SFRSYM    DATA     BYTE      S2CON
      000000B7H   SFRSYM    DATA     BYTE      IPH
      000000CDH   SFRSYM    DATA     BYTE      SPSTAT
      000000DDH   SFRSYM    DATA     BYTE      T4T3M
      000000C1H   SFRSYM    DATA     BYTE      WDT_CONTR
      000000DFH   SFRSYM    DATA     BYTE      IP3
      000000F4H   SFRSYM    DATA     BYTE      USBCON
      000000B5H   SFRSYM    DATA     BYTE      IP2
      000000FFH   SFRSYM    DATA     BYTE      RSTCFG
      000000C7H   SFRSYM    DATA     BYTE      IAP_CONTR
      000000F9H   SFRSYM    DATA     BYTE      LINICR
      0000008EH   SFRSYM    DATA     BYTE      AUXR
      000000AFH   SFRSYM    DATA     BYTE      IE2
      00000088H   SFRSYM    DATA     BYTE      TCON
      00000089H   SFRSYM    DATA     BYTE      TMOD
      00000098H   SFRSYM    DATA     BYTE      SCON
      000000F1H   SFRSYM    DATA     BYTE      CANICR
      00000087H   SFRSYM    DATA     BYTE      PCON
      000000BCH   SFRSYM    DATA     BYTE      ADC_CONTR
      000000E7H   SFRSYM    DATA     BYTE      CMPCR2
      000000E6H   SFRSYM    DATA     BYTE      CMPCR1
      000000DEH   SFRSYM    DATA     BYTE      ADCCFG
      000000B8H   SFRSYM    DATA     BYTE      IP
      0000008FH   SFRSYM    DATA     BYTE      INTCLKO
      000000EEH   SFRSYM    DATA     BYTE      IP3H
      000000B6H   SFRSYM    DATA     BYTE      IP2H
      000000A8H   SFRSYM    DATA     BYTE      IE
      000000BBH   SFRSYM    DATA     BYTE      P_SW3
      000000BAH   SFRSYM    DATA     BYTE      P_SW2
      000000A2H   SFRSYM    DATA     BYTE      P_SW1
      000000CEH   SFRSYM    DATA     BYTE      SPCTL
L251 LINKER/LOCATER V4.66.93.0                                                        02/28/2025  09:05:19  PAGE 38


      000000F8H   SFRSYM    DATA     BYTE      P7
      000000E8H   SFRSYM    DATA     BYTE      P6
      000000C8H   SFRSYM    DATA     BYTE      P5
      000000C0H   SFRSYM    DATA     BYTE      P4
      000000B0H   SFRSYM    DATA     BYTE      P3
      000000A0H   SFRSYM    DATA     BYTE      P2
      00000090H   SFRSYM    DATA     BYTE      P1
      00000080H   SFRSYM    DATA     BYTE      P0

      ---         MODULE    ---      ---       ModBusDev
      00010000H   PUBLIC    XDATA    ---       RecvFrame
      00010108H   PUBLIC    XDATA    ---       DevReadAck
      0001020DH   PUBLIC    XDATA    ---       ModBusPD_Param
      000102E5H   PUBLIC    XDATA    ---       DevWriteAck
      000000D0H   SFRSYM    DATA     BYTE      PSW
      0000009DH   SFRSYM    DATA     BYTE      IRCBAND
      00000097H   SFRSYM    DATA     BYTE      AUXR2
      000000EFH   SFRSYM    DATA     BYTE      AUXINTIF
      000000FDH   SFRSYM    DATA     BYTE      S4CON
      000000ACH   SFRSYM    DATA     BYTE      S3CON
      0000009AH   SFRSYM    DATA     BYTE      S2CON
      000000B7H   SFRSYM    DATA     BYTE      IPH
      000000CDH   SFRSYM    DATA     BYTE      SPSTAT
      000000DDH   SFRSYM    DATA     BYTE      T4T3M
      000000C1H   SFRSYM    DATA     BYTE      WDT_CONTR
      000000DFH   SFRSYM    DATA     BYTE      IP3
      000000F4H   SFRSYM    DATA     BYTE      USBCON
      000000B5H   SFRSYM    DATA     BYTE      IP2
      000000FFH   SFRSYM    DATA     BYTE      RSTCFG
      000000C7H   SFRSYM    DATA     BYTE      IAP_CONTR
      000000F9H   SFRSYM    DATA     BYTE      LINICR
      0000008EH   SFRSYM    DATA     BYTE      AUXR
      000000AFH   SFRSYM    DATA     BYTE      IE2
      00000088H   SFRSYM    DATA     BYTE      TCON
      00000089H   SFRSYM    DATA     BYTE      TMOD
      00000098H   SFRSYM    DATA     BYTE      SCON
      000000F1H   SFRSYM    DATA     BYTE      CANICR
      00000087H   SFRSYM    DATA     BYTE      PCON
      000000BCH   SFRSYM    DATA     BYTE      ADC_CONTR
      000000E7H   SFRSYM    DATA     BYTE      CMPCR2
      000000E6H   SFRSYM    DATA     BYTE      CMPCR1
      000000DEH   SFRSYM    DATA     BYTE      ADCCFG
      000000B8H   SFRSYM    DATA     BYTE      IP
      0000008FH   SFRSYM    DATA     BYTE      INTCLKO
      000000EEH   SFRSYM    DATA     BYTE      IP3H
      000000B6H   SFRSYM    DATA     BYTE      IP2H
      000000A8H   SFRSYM    DATA     BYTE      IE
      000000BBH   SFRSYM    DATA     BYTE      P_SW3
      000000BAH   SFRSYM    DATA     BYTE      P_SW2
      000000A2H   SFRSYM    DATA     BYTE      P_SW1
      000000CEH   SFRSYM    DATA     BYTE      SPCTL
      000000F8H   SFRSYM    DATA     BYTE      P7
      000000E8H   SFRSYM    DATA     BYTE      P6
      000000C8H   SFRSYM    DATA     BYTE      P5
      000000C0H   SFRSYM    DATA     BYTE      P4
      000000B0H   SFRSYM    DATA     BYTE      P3
      000000A0H   SFRSYM    DATA     BYTE      P2
      00000090H   SFRSYM    DATA     BYTE      P1
      00000080H   SFRSYM    DATA     BYTE      P0

      ---         MODULE    ---      ---       ModBusHost
      00FF585CH   PUBLIC    CODE     ---       SendTcpFrame
      00FF2940H   PUBLIC    CODE     ---       HostSendCmd
      00FF5BA4H   PUBLIC    CODE     ---       SendBuffer
      000102EDH   PUBLIC    XDATA    ---       WriteAckFrame
L251 LINKER/LOCATER V4.66.93.0                                                        02/28/2025  09:05:19  PAGE 39


      000102F5H   PUBLIC    XDATA    ---       HostSendFrame
      000103FDH   PUBLIC    XDATA    ---       ReadAckFrame
      00000BBFH   PUBLIC    EDATA    WORD      HostBufIndex
      00000BC1H   PUBLIC    EDATA    ---       MbId
      000009B2H   PUBLIC    EDATA    BYTE      ?HostSendCmd?BYTE
      000000D0H   SFRSYM    DATA     BYTE      PSW
      0000009DH   SFRSYM    DATA     BYTE      IRCBAND
      00000097H   SFRSYM    DATA     BYTE      AUXR2
      000000EFH   SFRSYM    DATA     BYTE      AUXINTIF
      000000FDH   SFRSYM    DATA     BYTE      S4CON
      000000ACH   SFRSYM    DATA     BYTE      S3CON
      0000009AH   SFRSYM    DATA     BYTE      S2CON
      000000B7H   SFRSYM    DATA     BYTE      IPH
      000000CDH   SFRSYM    DATA     BYTE      SPSTAT
      000000DDH   SFRSYM    DATA     BYTE      T4T3M
      000000C1H   SFRSYM    DATA     BYTE      WDT_CONTR
      000000DFH   SFRSYM    DATA     BYTE      IP3
      000000F4H   SFRSYM    DATA     BYTE      USBCON
      000000B5H   SFRSYM    DATA     BYTE      IP2
      000000FFH   SFRSYM    DATA     BYTE      RSTCFG
      000000C7H   SFRSYM    DATA     BYTE      IAP_CONTR
      000000F9H   SFRSYM    DATA     BYTE      LINICR
      0000008EH   SFRSYM    DATA     BYTE      AUXR
      000000AFH   SFRSYM    DATA     BYTE      IE2
      00000088H   SFRSYM    DATA     BYTE      TCON
      00000089H   SFRSYM    DATA     BYTE      TMOD
      00000098H   SFRSYM    DATA     BYTE      SCON
      000000F1H   SFRSYM    DATA     BYTE      CANICR
      00000087H   SFRSYM    DATA     BYTE      PCON
      000000BCH   SFRSYM    DATA     BYTE      ADC_CONTR
      000000E7H   SFRSYM    DATA     BYTE      CMPCR2
      000000E6H   SFRSYM    DATA     BYTE      CMPCR1
      000000DEH   SFRSYM    DATA     BYTE      ADCCFG
      000000B8H   SFRSYM    DATA     BYTE      IP
      0000008FH   SFRSYM    DATA     BYTE      INTCLKO
      000000EEH   SFRSYM    DATA     BYTE      IP3H
      000000B6H   SFRSYM    DATA     BYTE      IP2H
      000000A8H   SFRSYM    DATA     BYTE      IE
      000000BBH   SFRSYM    DATA     BYTE      P_SW3
      000000BAH   SFRSYM    DATA     BYTE      P_SW2
      000000A2H   SFRSYM    DATA     BYTE      P_SW1
      000000CEH   SFRSYM    DATA     BYTE      SPCTL
      000000F8H   SFRSYM    DATA     BYTE      P7
      000000E8H   SFRSYM    DATA     BYTE      P6
      000000C8H   SFRSYM    DATA     BYTE      P5
      000000C0H   SFRSYM    DATA     BYTE      P4
      000000B0H   SFRSYM    DATA     BYTE      P3
      000000A0H   SFRSYM    DATA     BYTE      P2
      00000090H   SFRSYM    DATA     BYTE      P1
      00000080H   SFRSYM    DATA     BYTE      P0

      ---         MODULE    ---      ---       system
      00FF52B7H   PUBLIC    CODE     ---       GetHightCounter
      00FF5525H   PUBLIC    CODE     ---       GetNaICounter
      00FF5309H   PUBLIC    CODE     ---       GetCounter
      00FF5F73H   PUBLIC    CODE     ---       Timer0_Init
      00FF60E5H   PUBLIC    CODE     ---       Timer1_Init
      00FF6136H   PUBLIC    CODE     ---       Timer3_Init
      00FF6143H   PUBLIC    CODE     ---       Timer4_Init
      00FF5A2AH   PUBLIC    CODE     ---       Timer0_Isr
      00FF60AFH   PUBLIC    CODE     ---       Timer1_Isr
      00FF60C1H   PUBLIC    CODE     ---       Timer3_Isr
      00FF60D3H   PUBLIC    CODE     ---       Timer4_Isr
      00FF5C25H   PUBLIC    CODE     ---       SysInit
      00000969H   PUBLIC    EDATA    WORD      IDLCnt
L251 LINKER/LOCATER V4.66.93.0                                                        02/28/2025  09:05:19  PAGE 40


      0000096BH   PUBLIC    EDATA    BYTE      LowOverCnt1
      0000096CH   PUBLIC    EDATA    BYTE      LowOverCnt3
      0000096DH   PUBLIC    EDATA    WORD      Timer0Cnt
      0000096FH   PUBLIC    EDATA    DWORD     Pluse1Cnt
      00000973H   PUBLIC    EDATA    DWORD     Pluse3Cnt
      00000977H   PUBLIC    EDATA    DWORD     Pluse4Cnt
      0000097BH   PUBLIC    EDATA    BYTE      HightOverCnt4
      000000D0H   SFRSYM    DATA     BYTE      PSW
      0000009DH   SFRSYM    DATA     BYTE      IRCBAND
      00000097H   SFRSYM    DATA     BYTE      AUXR2
      000000EFH   SFRSYM    DATA     BYTE      AUXINTIF
      000000FDH   SFRSYM    DATA     BYTE      S4CON
      000000ACH   SFRSYM    DATA     BYTE      S3CON
      0000009AH   SFRSYM    DATA     BYTE      S2CON
      000000B7H   SFRSYM    DATA     BYTE      IPH
      000000CDH   SFRSYM    DATA     BYTE      SPSTAT
      000000DDH   SFRSYM    DATA     BYTE      T4T3M
      000000DDH.7 SFRSYM    DATA     BIT       T4R
      000000DDH.3 SFRSYM    DATA     BIT       T3R
      000000C1H   SFRSYM    DATA     BYTE      WDT_CONTR
      00000088H.6 SFRSYM    DATA     BIT       TR1
      00000088H.4 SFRSYM    DATA     BIT       TR0
      000000B8H.1 SFRSYM    DATA     BIT       PT0
      000000D3H   SFRSYM    DATA     BYTE      T4L
      000000D5H   SFRSYM    DATA     BYTE      T3L
      0000008BH   SFRSYM    DATA     BYTE      TL1
      0000008AH   SFRSYM    DATA     BYTE      TL0
      000000D2H   SFRSYM    DATA     BYTE      T4H
      000000D4H   SFRSYM    DATA     BYTE      T3H
      0000008DH   SFRSYM    DATA     BYTE      TH1
      0000008CH   SFRSYM    DATA     BYTE      TH0
      000000DFH   SFRSYM    DATA     BYTE      IP3
      000000F4H   SFRSYM    DATA     BYTE      USBCON
      000000B5H   SFRSYM    DATA     BYTE      IP2
      000000FFH   SFRSYM    DATA     BYTE      RSTCFG
      000000A8H.3 SFRSYM    DATA     BIT       ET1
      000000A8H.1 SFRSYM    DATA     BIT       ET0
      000000C7H   SFRSYM    DATA     BYTE      IAP_CONTR
      000000F9H   SFRSYM    DATA     BYTE      LINICR
      0000008EH   SFRSYM    DATA     BYTE      AUXR
      000000AFH   SFRSYM    DATA     BYTE      IE2
      00000088H   SFRSYM    DATA     BYTE      TCON
      00000089H   SFRSYM    DATA     BYTE      TMOD
      00000098H   SFRSYM    DATA     BYTE      SCON
      000000F1H   SFRSYM    DATA     BYTE      CANICR
      00000087H   SFRSYM    DATA     BYTE      PCON
      000000BCH   SFRSYM    DATA     BYTE      ADC_CONTR
      000000E7H   SFRSYM    DATA     BYTE      CMPCR2
      000000E6H   SFRSYM    DATA     BYTE      CMPCR1
      000000B7H.1 SFRSYM    DATA     BIT       PT0H
      000000DEH   SFRSYM    DATA     BYTE      ADCCFG
      000000B8H   SFRSYM    DATA     BYTE      IP
      0000008FH   SFRSYM    DATA     BYTE      INTCLKO
      000000EEH   SFRSYM    DATA     BYTE      IP3H
      000000B6H   SFRSYM    DATA     BYTE      IP2H
      000000A8H   SFRSYM    DATA     BYTE      IE
      000000BBH   SFRSYM    DATA     BYTE      P_SW3
      000000BAH   SFRSYM    DATA     BYTE      P_SW2
      000000A2H   SFRSYM    DATA     BYTE      P_SW1
      000000CEH   SFRSYM    DATA     BYTE      SPCTL
      000000F8H   SFRSYM    DATA     BYTE      P7
      000000E8H   SFRSYM    DATA     BYTE      P6
      000000C8H   SFRSYM    DATA     BYTE      P5
      000000C0H   SFRSYM    DATA     BYTE      P4
      000000B0H   SFRSYM    DATA     BYTE      P3
L251 LINKER/LOCATER V4.66.93.0                                                        02/28/2025  09:05:19  PAGE 41


      000000A0H   SFRSYM    DATA     BYTE      P2
      00000090H   SFRSYM    DATA     BYTE      P1
      00000080H   SFRSYM    DATA     BYTE      P0

      ---         MODULE    ---      ---       PD_Probe
      00FF4AE7H   PUBLIC    CODE     ---       PDProbe_Ack
      00FF41B6H   PUBLIC    CODE     ---       ReadPD_Ack
      00FF009EH   PUBLIC    CODE     ---       WritePD_Ack
      00FF5CE6H   PUBLIC    CODE     ---       SendReadPD
      00FF5BCFH   PUBLIC    CODE     ---       WritePD_Thr
      00FF37C1H   PUBLIC    CODE     ---       Calc_PD_AlarmState
      00FF3D2FH   PUBLIC    CODE     ---       Set_PD_DoseRateUnit
      00FF5BFAH   PUBLIC    CODE     ---       WritePD_fix
      00FF338BH   PUBLIC    CODE     ---       ModBusPDSave
      000000D0H   SFRSYM    DATA     BYTE      PSW
      0000009DH   SFRSYM    DATA     BYTE      IRCBAND
      00000097H   SFRSYM    DATA     BYTE      AUXR2
      000000EFH   SFRSYM    DATA     BYTE      AUXINTIF
      000000FDH   SFRSYM    DATA     BYTE      S4CON
      000000ACH   SFRSYM    DATA     BYTE      S3CON
      0000009AH   SFRSYM    DATA     BYTE      S2CON
      000000B7H   SFRSYM    DATA     BYTE      IPH
      000000CDH   SFRSYM    DATA     BYTE      SPSTAT
      000000DDH   SFRSYM    DATA     BYTE      T4T3M
      000000C1H   SFRSYM    DATA     BYTE      WDT_CONTR
      000000DFH   SFRSYM    DATA     BYTE      IP3
      000000F4H   SFRSYM    DATA     BYTE      USBCON
      000000B5H   SFRSYM    DATA     BYTE      IP2
      000000FFH   SFRSYM    DATA     BYTE      RSTCFG
      000000C7H   SFRSYM    DATA     BYTE      IAP_CONTR
      000000F9H   SFRSYM    DATA     BYTE      LINICR
      0000008EH   SFRSYM    DATA     BYTE      AUXR
      000000AFH   SFRSYM    DATA     BYTE      IE2
      00000088H   SFRSYM    DATA     BYTE      TCON
      00000089H   SFRSYM    DATA     BYTE      TMOD
      00000098H   SFRSYM    DATA     BYTE      SCON
      000000F1H   SFRSYM    DATA     BYTE      CANICR
      00000087H   SFRSYM    DATA     BYTE      PCON
      000000BCH   SFRSYM    DATA     BYTE      ADC_CONTR
      000000E7H   SFRSYM    DATA     BYTE      CMPCR2
      000000E6H   SFRSYM    DATA     BYTE      CMPCR1
      000000DEH   SFRSYM    DATA     BYTE      ADCCFG
      000000B8H   SFRSYM    DATA     BYTE      IP
      0000008FH   SFRSYM    DATA     BYTE      INTCLKO
      000000EEH   SFRSYM    DATA     BYTE      IP3H
      000000B6H   SFRSYM    DATA     BYTE      IP2H
      000000A8H   SFRSYM    DATA     BYTE      IE
      000000BBH   SFRSYM    DATA     BYTE      P_SW3
      000000BAH   SFRSYM    DATA     BYTE      P_SW2
      000000A2H   SFRSYM    DATA     BYTE      P_SW1
      000000CEH   SFRSYM    DATA     BYTE      SPCTL
      000000F8H   SFRSYM    DATA     BYTE      P7
      000000E8H   SFRSYM    DATA     BYTE      P6
      000000C8H   SFRSYM    DATA     BYTE      P5
      000000C0H   SFRSYM    DATA     BYTE      P4
      000000B0H   SFRSYM    DATA     BYTE      P3
      000000A0H   SFRSYM    DATA     BYTE      P2
      00000090H   SFRSYM    DATA     BYTE      P1
      00000080H   SFRSYM    DATA     BYTE      P0

      ---         MODULE    ---      ---       CalcDoseRate
      00FF3046H   PUBLIC    CODE     ---       BackPH
      00FF1A3CH   PUBLIC    CODE     ---       CpsFilter
      00FF48E9H   PUBLIC    CODE     ---       GetNaIDoseRate
      00FF3F85H   PUBLIC    CODE     ---       SmothCpsCalcRate
L251 LINKER/LOCATER V4.66.93.0                                                        02/28/2025  09:05:19  PAGE 42


      00FF5161H   PUBLIC    CODE     ---       InitArr
      00FF462CH   PUBLIC    CODE     ---       PushCps
      00FF0026H   PUBLIC    CODE     ---       ClearCounter
      00FF0003H   PUBLIC    CODE     ---       AddCounter
      00FF43BCH   PUBLIC    CODE     ---       CpsToUsv_h
      00FF349CH   PUBLIC    CODE     ---       CounterPH
      00000352H   PUBLIC    EDATA    BYTE      BackCnt
      00000353H   PUBLIC    EDATA    ---       BackAv
      00000380H   PUBLIC    EDATA    ---       CpsArr
      00000470H   PUBLIC    EDATA    BYTE      BackTimer
      000009C3H   PUBLIC    EDATA    BYTE      ?SmothCpsCalcRate?BYTE
      000000D0H   SFRSYM    DATA     BYTE      PSW
      0000009DH   SFRSYM    DATA     BYTE      IRCBAND
      00000097H   SFRSYM    DATA     BYTE      AUXR2
      000000EFH   SFRSYM    DATA     BYTE      AUXINTIF
      000000FDH   SFRSYM    DATA     BYTE      S4CON
      000000ACH   SFRSYM    DATA     BYTE      S3CON
      0000009AH   SFRSYM    DATA     BYTE      S2CON
      000000B7H   SFRSYM    DATA     BYTE      IPH
      000000CDH   SFRSYM    DATA     BYTE      SPSTAT
      000000DDH   SFRSYM    DATA     BYTE      T4T3M
      000000C1H   SFRSYM    DATA     BYTE      WDT_CONTR
      000000DFH   SFRSYM    DATA     BYTE      IP3
      000000F4H   SFRSYM    DATA     BYTE      USBCON
      000000B5H   SFRSYM    DATA     BYTE      IP2
      000000FFH   SFRSYM    DATA     BYTE      RSTCFG
      000000C7H   SFRSYM    DATA     BYTE      IAP_CONTR
      000000F9H   SFRSYM    DATA     BYTE      LINICR
      0000008EH   SFRSYM    DATA     BYTE      AUXR
      000000AFH   SFRSYM    DATA     BYTE      IE2
      00000088H   SFRSYM    DATA     BYTE      TCON
      00000089H   SFRSYM    DATA     BYTE      TMOD
      00000098H   SFRSYM    DATA     BYTE      SCON
      000000F1H   SFRSYM    DATA     BYTE      CANICR
      00000087H   SFRSYM    DATA     BYTE      PCON
      000000BCH   SFRSYM    DATA     BYTE      ADC_CONTR
      000000E7H   SFRSYM    DATA     BYTE      CMPCR2
      000000E6H   SFRSYM    DATA     BYTE      CMPCR1
      000000DEH   SFRSYM    DATA     BYTE      ADCCFG
      000000B8H   SFRSYM    DATA     BYTE      IP
      0000008FH   SFRSYM    DATA     BYTE      INTCLKO
      000000EEH   SFRSYM    DATA     BYTE      IP3H
      000000B6H   SFRSYM    DATA     BYTE      IP2H
      000000A8H   SFRSYM    DATA     BYTE      IE
      000000BBH   SFRSYM    DATA     BYTE      P_SW3
      000000BAH   SFRSYM    DATA     BYTE      P_SW2
      000000A2H   SFRSYM    DATA     BYTE      P_SW1
      000000CEH   SFRSYM    DATA     BYTE      SPCTL
      000000F8H   SFRSYM    DATA     BYTE      P7
      000000E8H   SFRSYM    DATA     BYTE      P6
      000000C8H   SFRSYM    DATA     BYTE      P5
      000000C0H   SFRSYM    DATA     BYTE      P4
      000000B0H   SFRSYM    DATA     BYTE      P3
      000000A0H   SFRSYM    DATA     BYTE      P2
      00000090H   SFRSYM    DATA     BYTE      P1
      00000080H   SFRSYM    DATA     BYTE      P0

      ---         MODULE    ---      ---       Sensor
      00FF5EF4H   PUBLIC    CODE     ---       SensorInit
      00FF38C8H   PUBLIC    CODE     ---       UseHighParam
      00FF6012H   PUBLIC    CODE     ---       SensorMeasureBegin
      00FF6028H   PUBLIC    CODE     ---       RefreshParam
      00FF3DF8H   PUBLIC    CODE     ---       Set_LP_DoseRateUnit
      00FF2113H   PUBLIC    CODE     ---       CaptureSensorPluseCounter
      00FF3B9BH   PUBLIC    CODE     ---       UseLowParam
L251 LINKER/LOCATER V4.66.93.0                                                        02/28/2025  09:05:19  PAGE 43


      00FF24C4H   PUBLIC    CODE     ---       DrFix
      00FF1EFDH   PUBLIC    CODE     ---       CalcAlarmState
      00000853H   PUBLIC    EDATA    FLOAT     parama
      00000857H   PUBLIC    EDATA    BYTE      GDoseSeg
      00000858H   PUBLIC    EDATA    FLOAT     paramb
      0000085CH   PUBLIC    EDATA    FLOAT     paramc
      00000860H   PUBLIC    EDATA    FLOAT     paramd
      00000868H   PUBLIC    EDATA    DWORD     Low_CPS
      00FF6835H   PUBLIC    HCONST   ---       NhDef
      000000D0H   SFRSYM    DATA     BYTE      PSW
      0000009DH   SFRSYM    DATA     BYTE      IRCBAND
      00000097H   SFRSYM    DATA     BYTE      AUXR2
      000000EFH   SFRSYM    DATA     BYTE      AUXINTIF
      000000FDH   SFRSYM    DATA     BYTE      S4CON
      000000ACH   SFRSYM    DATA     BYTE      S3CON
      0000009AH   SFRSYM    DATA     BYTE      S2CON
      000000B7H   SFRSYM    DATA     BYTE      IPH
      000000CDH   SFRSYM    DATA     BYTE      SPSTAT
      000000DDH   SFRSYM    DATA     BYTE      T4T3M
      000000C1H   SFRSYM    DATA     BYTE      WDT_CONTR
      000000DFH   SFRSYM    DATA     BYTE      IP3
      000000F4H   SFRSYM    DATA     BYTE      USBCON
      000000B5H   SFRSYM    DATA     BYTE      IP2
      000000FFH   SFRSYM    DATA     BYTE      RSTCFG
      000000C7H   SFRSYM    DATA     BYTE      IAP_CONTR
      000000F9H   SFRSYM    DATA     BYTE      LINICR
      0000008EH   SFRSYM    DATA     BYTE      AUXR
      000000AFH   SFRSYM    DATA     BYTE      IE2
      00000088H   SFRSYM    DATA     BYTE      TCON
      00000089H   SFRSYM    DATA     BYTE      TMOD
      00000098H   SFRSYM    DATA     BYTE      SCON
      000000F1H   SFRSYM    DATA     BYTE      CANICR
      00000087H   SFRSYM    DATA     BYTE      PCON
      000000BCH   SFRSYM    DATA     BYTE      ADC_CONTR
      000000E7H   SFRSYM    DATA     BYTE      CMPCR2
      000000E6H   SFRSYM    DATA     BYTE      CMPCR1
      000000DEH   SFRSYM    DATA     BYTE      ADCCFG
      000000B8H   SFRSYM    DATA     BYTE      IP
      0000008FH   SFRSYM    DATA     BYTE      INTCLKO
      000000EEH   SFRSYM    DATA     BYTE      IP3H
      000000B6H   SFRSYM    DATA     BYTE      IP2H
      000000A8H   SFRSYM    DATA     BYTE      IE
      000000BBH   SFRSYM    DATA     BYTE      P_SW3
      000000BAH   SFRSYM    DATA     BYTE      P_SW2
      000000A2H   SFRSYM    DATA     BYTE      P_SW1
      000000CEH   SFRSYM    DATA     BYTE      SPCTL
      000000F8H   SFRSYM    DATA     BYTE      P7
      000000E8H   SFRSYM    DATA     BYTE      P6
      000000C8H   SFRSYM    DATA     BYTE      P5
      000000C0H   SFRSYM    DATA     BYTE      P4
      000000B0H   SFRSYM    DATA     BYTE      P3
      000000A0H   SFRSYM    DATA     BYTE      P2
      00000090H   SFRSYM    DATA     BYTE      P1
      00000080H   SFRSYM    DATA     BYTE      P0

      ---         MODULE    ---      ---       cmd
      00FF3278H   PUBLIC    CODE     ---       SendData
      00FF5C74H   PUBLIC    CODE     ---       ReadCS
      00FF60F6H   PUBLIC    CODE     ---       ACK_CMD_TIME
      00FF27E0H   PUBLIC    CODE     ---       ReadFix
      00FF2BA5H   PUBLIC    CODE     ---       ACK_CMD_B
      00FF615CH   PUBLIC    CODE     ---       ACK_CMD_C
      00FF36B7H   PUBLIC    CODE     ---       ACK_CMD_F
      00FF603EH   PUBLIC    CODE     ---       ACK_CMD_H
      00FF4A6BH   PUBLIC    CODE     ---       ACK_CMD_J
L251 LINKER/LOCATER V4.66.93.0                                                        02/28/2025  09:05:19  PAGE 44


      00FF1008H   PUBLIC    CODE     ---       DataPro
      00FF6107H   PUBLIC    CODE     ---       ACK_CMD_M
      00FF4503H   PUBLIC    CODE     ---       ACK_CMD_N
      00FF2CD4H   PUBLIC    CODE     ---       ACK_CMD_P
      00FF5B4AH   PUBLIC    CODE     ---       ACK_CMD_Q
      00FF2658H   PUBLIC    CODE     ---       WriteFix
      00FF1C9FH   PUBLIC    CODE     ---       ACK_CMD_R
      00FF6166H   PUBLIC    CODE     ---       ACK_CMD_T
      00FF4FEBH   PUBLIC    CODE     ---       FloatToSmall
      00FF2F25H   PUBLIC    CODE     ---       ACK_CMD_V
      00FF178BH   PUBLIC    CODE     ---       ACK_CMD_W
      00FF5B77H   PUBLIC    CODE     ---       AlarmConfirm
      00FF504AH   PUBLIC    CODE     ---       DwordToSmall
      00FF58D9H   PUBLIC    CODE     ---       SetCS
      00FF535BH   PUBLIC    CODE     ---       ACK_CMD_RINFO
      00FF4D98H   PUBLIC    CODE     ---       ACK_CMD_WINFO
      0000059AH   PUBLIC    EDATA    ---       gs_CMD
      0000059FH   PUBLIC    EDATA    ---       s_Head
      000005A4H   PUBLIC    EDATA    ---       sendbuf
      000000D0H   SFRSYM    DATA     BYTE      PSW
      0000009DH   SFRSYM    DATA     BYTE      IRCBAND
      00000097H   SFRSYM    DATA     BYTE      AUXR2
      000000EFH   SFRSYM    DATA     BYTE      AUXINTIF
      000000FDH   SFRSYM    DATA     BYTE      S4CON
      000000ACH   SFRSYM    DATA     BYTE      S3CON
      0000009AH   SFRSYM    DATA     BYTE      S2CON
      000000B7H   SFRSYM    DATA     BYTE      IPH
      000000CDH   SFRSYM    DATA     BYTE      SPSTAT
      000000DDH   SFRSYM    DATA     BYTE      T4T3M
      000000C1H   SFRSYM    DATA     BYTE      WDT_CONTR
      000000DFH   SFRSYM    DATA     BYTE      IP3
      000000F4H   SFRSYM    DATA     BYTE      USBCON
      000000B5H   SFRSYM    DATA     BYTE      IP2
      000000FFH   SFRSYM    DATA     BYTE      RSTCFG
      000000C7H   SFRSYM    DATA     BYTE      IAP_CONTR
      000000F9H   SFRSYM    DATA     BYTE      LINICR
      0000008EH   SFRSYM    DATA     BYTE      AUXR
      000000AFH   SFRSYM    DATA     BYTE      IE2
      00000088H   SFRSYM    DATA     BYTE      TCON
      00000089H   SFRSYM    DATA     BYTE      TMOD
      00000098H   SFRSYM    DATA     BYTE      SCON
      000000F1H   SFRSYM    DATA     BYTE      CANICR
      00000087H   SFRSYM    DATA     BYTE      PCON
      000000BCH   SFRSYM    DATA     BYTE      ADC_CONTR
      000000E7H   SFRSYM    DATA     BYTE      CMPCR2
      000000E6H   SFRSYM    DATA     BYTE      CMPCR1
      000000DEH   SFRSYM    DATA     BYTE      ADCCFG
      000000B8H   SFRSYM    DATA     BYTE      IP
      0000008FH   SFRSYM    DATA     BYTE      INTCLKO
      000000EEH   SFRSYM    DATA     BYTE      IP3H
      000000B6H   SFRSYM    DATA     BYTE      IP2H
      000000A8H   SFRSYM    DATA     BYTE      IE
      000000BBH   SFRSYM    DATA     BYTE      P_SW3
      000000BAH   SFRSYM    DATA     BYTE      P_SW2
      000000A2H   SFRSYM    DATA     BYTE      P_SW1
      000000CEH   SFRSYM    DATA     BYTE      SPCTL
      000000F8H   SFRSYM    DATA     BYTE      P7
      000000E1H   SFRSYM    DATA     BYTE      P7M1
      000000E8H   SFRSYM    DATA     BYTE      P6
      000000C8H   SFRSYM    DATA     BYTE      P5
      000000E2H   SFRSYM    DATA     BYTE      P7M0
      000000C0H   SFRSYM    DATA     BYTE      P4
      000000B0H   SFRSYM    DATA     BYTE      P3
      000000A0H   SFRSYM    DATA     BYTE      P2
      00000090H   SFRSYM    DATA     BYTE      P1
L251 LINKER/LOCATER V4.66.93.0                                                        02/28/2025  09:05:19  PAGE 45


      00000080H   SFRSYM    DATA     BYTE      P0

      ---         MODULE    ---      ---       ?C?FPADD
      00FF013EH   PUBLIC    CODE     ---       ?C?FPADD
      00FF013BH   PUBLIC    CODE     ---       ?C?FPSUB

      ---         MODULE    ---      ---       ?C?FPMUL
      00FF01F6H   PUBLIC    CODE     ---       ?C?FPMUL

      ---         MODULE    ---      ---       ?C?FPDIV
      00FF0296H   PUBLIC    CODE     ---       ?C?FPDIV

      ---         MODULE    ---      ---       ?C?FPCMP
      00FF0319H   PUBLIC    CODE     ---       ?C?FPCMP
      00FF0317H   PUBLIC    CODE     ---       ?C?FPCMP3

      ---         MODULE    ---      ---       ?C?FCAST
      00FF0367H   PUBLIC    CODE     NEAR LAB  ?C?FCASTC
      00FF0362H   PUBLIC    CODE     NEAR LAB  ?C?FCASTI
      00FF035DH   PUBLIC    CODE     NEAR LAB  ?C?FCASTL

      ---         MODULE    ---      ---       ?C?CASTF
      00FF039AH   PUBLIC    CODE     NEAR LAB  ?C?CASTF

      ---         MODULE    ---      ---       SPRINTF
      000008C8H   PUBLIC    EDATA    ---       ?SPRINTF?BYTE
      00FF03D7H   PUBLIC    CODE     NEAR LAB  SPRINTF

      ---         MODULE    ---      ---       EXP?_
      00FF0430H   PUBLIC    CODE     ---       EXP?_

      ---         MODULE    ---      ---       SQRT?_
      00FF0493H   PUBLIC    CODE     ---       SQRT?_

      ---         MODULE    ---      ---       ?C?FPGETOPN
      00FF0523H   PUBLIC    CODE     ---       ?C?FPGETOPN2
      00FF0560H   PUBLIC    CODE     ---       ?C?FPNANRESULT
      00FF0568H   PUBLIC    CODE     ---       ?C?FPOVERFLOW
      00FF053CH   PUBLIC    CODE     ---       ?C?FPRESULT
      00FF0552H   PUBLIC    CODE     ---       ?C?FPRESULT2
      00FF0565H   PUBLIC    CODE     ---       ?C?FPUNDERFLOW

      ---         MODULE    ---      ---       ?C?PRNFMT
      00FF05A1H   PUBLIC    CODE     ---       ?C?PRNFMT

      ---         MODULE    ---      ---       ?C?FPSERIES
      00FF09B0H   PUBLIC    CODE     ---       ?C?FP2SERIES
      00FF09B9H   PUBLIC    CODE     ---       ?C?FPSERIES

      ---         MODULE    ---      ---       ?C?FPCONVERT
      00FF09EBH   PUBLIC    CODE     ---       ?C?FPCONVERT
      00FF0AA3H   PUBLIC    CODE     ---       ?C?FPROUND

      ---         MODULE    ---      ---       ?C?FTNPWR
      00FF0B16H   PUBLIC    CODE     ---       ?C?FTNPWR

      ---         MODULE    ---      ---       ?C_START
      00FF0000H   PUBLIC    CODE     ---       ?C?STARTUP
      00FF0000H   PUBLIC    CODE     ---       ?C_STARTUP

      ---         MODULE    ---      ---       ?C?INITEDATA
      00FF4CCFH   PUBLIC    CODE     ---       ?C?INITEDATA

      ---         MODULE    ---      ---       ?C?INITHDATA
      00FF4CF8H   PUBLIC    CODE     ---       ?C?INITHDATA
L251 LINKER/LOCATER V4.66.93.0                                                        02/28/2025  09:05:19  PAGE 46



      ---         MODULE    ---      ---       ?C?ULDIV
      00FF0B4FH   PUBLIC    CODE     NEAR LAB  ?C?ULDIV
      00FF0B4DH   PUBLIC    CODE     NEAR LAB  ?C?ULIDIV

      ---         MODULE    ---      ---       ?C?BMOVENP
      00FF0BA2H   PUBLIC    CODE     ---       ?C?BMOVENP
      00FF0BA0H   PUBLIC    CODE     ---       ?C?BMOVENP8

      ---         MODULE    ---      ---       ATOI
      00FF49ECH   PUBLIC    CODE     ---       atoi?_

      ---         MODULE    ---      ---       STRLEN
      00FF6128H   PUBLIC    CODE     ---       strlen?_

      ---         MODULE    ---      ---       memcmp
      00FF5AEEH   PUBLIC    CODE     ---       memcmp?_

      ---         MODULE    ---      ---       memcpy
      00FF5D0BH   PUBLIC    CODE     ---       memcpy?_

      ---         MODULE    ---      ---       memset
      00FF5F0FH   PUBLIC    CODE     ---       memset?_

      ---         MODULE    ---      ---       ?C?INITEDATA_END
      00FF63F7H   PUBLIC    HCONST   WORD      ?C?INITEDATA_END

      ---         MODULE    ---      ---       ?C?INITHDATA_END
      00FF6678H   PUBLIC    HCONST   WORD      ?C?INITHDATA_END

      ---         MODULE    ---      ---       ISDIGIT
      00FF6118H   PUBLIC    CODE     ---       isdigit?_

      ---         MODULE    ---      ---       ISSPACE
      00FF6053H   PUBLIC    CODE     ---       isspace?_

Program Size: data=8.4 edata+hdata=3375 xdata=2540 const=1986 code=24939
L251 RUN COMPLETE.  0 WARNING(S),  0 ERROR(S)
